
firmware.elf:     file format elf32-littlearm


Disassembly of section .text:

08000250 <__do_global_dtors_aux>:
 8000250:	b510      	push	{r4, lr}
 8000252:	4c05      	ldr	r4, [pc, #20]	; (8000268 <__do_global_dtors_aux+0x18>)
 8000254:	7823      	ldrb	r3, [r4, #0]
 8000256:	b933      	cbnz	r3, 8000266 <__do_global_dtors_aux+0x16>
 8000258:	4b04      	ldr	r3, [pc, #16]	; (800026c <__do_global_dtors_aux+0x1c>)
 800025a:	b113      	cbz	r3, 8000262 <__do_global_dtors_aux+0x12>
 800025c:	4804      	ldr	r0, [pc, #16]	; (8000270 <__do_global_dtors_aux+0x20>)
 800025e:	e000      	b.n	8000262 <__do_global_dtors_aux+0x12>
 8000260:	bf00      	nop
 8000262:	2301      	movs	r3, #1
 8000264:	7023      	strb	r3, [r4, #0]
 8000266:	bd10      	pop	{r4, pc}
 8000268:	20000854 	.word	0x20000854
 800026c:	00000000 	.word	0x00000000
 8000270:	0800c5ec 	.word	0x0800c5ec

08000274 <frame_dummy>:
 8000274:	b508      	push	{r3, lr}
 8000276:	4b03      	ldr	r3, [pc, #12]	; (8000284 <frame_dummy+0x10>)
 8000278:	b11b      	cbz	r3, 8000282 <frame_dummy+0xe>
 800027a:	4903      	ldr	r1, [pc, #12]	; (8000288 <frame_dummy+0x14>)
 800027c:	4803      	ldr	r0, [pc, #12]	; (800028c <frame_dummy+0x18>)
 800027e:	e000      	b.n	8000282 <frame_dummy+0xe>
 8000280:	bf00      	nop
 8000282:	bd08      	pop	{r3, pc}
 8000284:	00000000 	.word	0x00000000
 8000288:	20000858 	.word	0x20000858
 800028c:	0800c5ec 	.word	0x0800c5ec

08000290 <__aeabi_drsub>:
 8000290:	f081 4100 	eor.w	r1, r1, #2147483648	; 0x80000000
 8000294:	e002      	b.n	800029c <__adddf3>
 8000296:	bf00      	nop

08000298 <__aeabi_dsub>:
 8000298:	f083 4300 	eor.w	r3, r3, #2147483648	; 0x80000000

0800029c <__adddf3>:
 800029c:	b530      	push	{r4, r5, lr}
 800029e:	ea4f 0441 	mov.w	r4, r1, lsl #1
 80002a2:	ea4f 0543 	mov.w	r5, r3, lsl #1
 80002a6:	ea94 0f05 	teq	r4, r5
 80002aa:	bf08      	it	eq
 80002ac:	ea90 0f02 	teqeq	r0, r2
 80002b0:	bf1f      	itttt	ne
 80002b2:	ea54 0c00 	orrsne.w	ip, r4, r0
 80002b6:	ea55 0c02 	orrsne.w	ip, r5, r2
 80002ba:	ea7f 5c64 	mvnsne.w	ip, r4, asr #21
 80002be:	ea7f 5c65 	mvnsne.w	ip, r5, asr #21
 80002c2:	f000 80e2 	beq.w	800048a <__adddf3+0x1ee>
 80002c6:	ea4f 5454 	mov.w	r4, r4, lsr #21
 80002ca:	ebd4 5555 	rsbs	r5, r4, r5, lsr #21
 80002ce:	bfb8      	it	lt
 80002d0:	426d      	neglt	r5, r5
 80002d2:	dd0c      	ble.n	80002ee <__adddf3+0x52>
 80002d4:	442c      	add	r4, r5
 80002d6:	ea80 0202 	eor.w	r2, r0, r2
 80002da:	ea81 0303 	eor.w	r3, r1, r3
 80002de:	ea82 0000 	eor.w	r0, r2, r0
 80002e2:	ea83 0101 	eor.w	r1, r3, r1
 80002e6:	ea80 0202 	eor.w	r2, r0, r2
 80002ea:	ea81 0303 	eor.w	r3, r1, r3
 80002ee:	2d36      	cmp	r5, #54	; 0x36
 80002f0:	bf88      	it	hi
 80002f2:	bd30      	pophi	{r4, r5, pc}
 80002f4:	f011 4f00 	tst.w	r1, #2147483648	; 0x80000000
 80002f8:	ea4f 3101 	mov.w	r1, r1, lsl #12
 80002fc:	f44f 1c80 	mov.w	ip, #1048576	; 0x100000
 8000300:	ea4c 3111 	orr.w	r1, ip, r1, lsr #12
 8000304:	d002      	beq.n	800030c <__adddf3+0x70>
 8000306:	4240      	negs	r0, r0
 8000308:	eb61 0141 	sbc.w	r1, r1, r1, lsl #1
 800030c:	f013 4f00 	tst.w	r3, #2147483648	; 0x80000000
 8000310:	ea4f 3303 	mov.w	r3, r3, lsl #12
 8000314:	ea4c 3313 	orr.w	r3, ip, r3, lsr #12
 8000318:	d002      	beq.n	8000320 <__adddf3+0x84>
 800031a:	4252      	negs	r2, r2
 800031c:	eb63 0343 	sbc.w	r3, r3, r3, lsl #1
 8000320:	ea94 0f05 	teq	r4, r5
 8000324:	f000 80a7 	beq.w	8000476 <__adddf3+0x1da>
 8000328:	f1a4 0401 	sub.w	r4, r4, #1
 800032c:	f1d5 0e20 	rsbs	lr, r5, #32
 8000330:	db0d      	blt.n	800034e <__adddf3+0xb2>
 8000332:	fa02 fc0e 	lsl.w	ip, r2, lr
 8000336:	fa22 f205 	lsr.w	r2, r2, r5
 800033a:	1880      	adds	r0, r0, r2
 800033c:	f141 0100 	adc.w	r1, r1, #0
 8000340:	fa03 f20e 	lsl.w	r2, r3, lr
 8000344:	1880      	adds	r0, r0, r2
 8000346:	fa43 f305 	asr.w	r3, r3, r5
 800034a:	4159      	adcs	r1, r3
 800034c:	e00e      	b.n	800036c <__adddf3+0xd0>
 800034e:	f1a5 0520 	sub.w	r5, r5, #32
 8000352:	f10e 0e20 	add.w	lr, lr, #32
 8000356:	2a01      	cmp	r2, #1
 8000358:	fa03 fc0e 	lsl.w	ip, r3, lr
 800035c:	bf28      	it	cs
 800035e:	f04c 0c02 	orrcs.w	ip, ip, #2
 8000362:	fa43 f305 	asr.w	r3, r3, r5
 8000366:	18c0      	adds	r0, r0, r3
 8000368:	eb51 71e3 	adcs.w	r1, r1, r3, asr #31
 800036c:	f001 4500 	and.w	r5, r1, #2147483648	; 0x80000000
 8000370:	d507      	bpl.n	8000382 <__adddf3+0xe6>
 8000372:	f04f 0e00 	mov.w	lr, #0
 8000376:	f1dc 0c00 	rsbs	ip, ip, #0
 800037a:	eb7e 0000 	sbcs.w	r0, lr, r0
 800037e:	eb6e 0101 	sbc.w	r1, lr, r1
 8000382:	f5b1 1f80 	cmp.w	r1, #1048576	; 0x100000
 8000386:	d31b      	bcc.n	80003c0 <__adddf3+0x124>
 8000388:	f5b1 1f00 	cmp.w	r1, #2097152	; 0x200000
 800038c:	d30c      	bcc.n	80003a8 <__adddf3+0x10c>
 800038e:	0849      	lsrs	r1, r1, #1
 8000390:	ea5f 0030 	movs.w	r0, r0, rrx
 8000394:	ea4f 0c3c 	mov.w	ip, ip, rrx
 8000398:	f104 0401 	add.w	r4, r4, #1
 800039c:	ea4f 5244 	mov.w	r2, r4, lsl #21
 80003a0:	f512 0f80 	cmn.w	r2, #4194304	; 0x400000
 80003a4:	f080 809a 	bcs.w	80004dc <__adddf3+0x240>
 80003a8:	f1bc 4f00 	cmp.w	ip, #2147483648	; 0x80000000
 80003ac:	bf08      	it	eq
 80003ae:	ea5f 0c50 	movseq.w	ip, r0, lsr #1
 80003b2:	f150 0000 	adcs.w	r0, r0, #0
 80003b6:	eb41 5104 	adc.w	r1, r1, r4, lsl #20
 80003ba:	ea41 0105 	orr.w	r1, r1, r5
 80003be:	bd30      	pop	{r4, r5, pc}
 80003c0:	ea5f 0c4c 	movs.w	ip, ip, lsl #1
 80003c4:	4140      	adcs	r0, r0
 80003c6:	eb41 0101 	adc.w	r1, r1, r1
 80003ca:	3c01      	subs	r4, #1
 80003cc:	bf28      	it	cs
 80003ce:	f5b1 1f80 	cmpcs.w	r1, #1048576	; 0x100000
 80003d2:	d2e9      	bcs.n	80003a8 <__adddf3+0x10c>
 80003d4:	f091 0f00 	teq	r1, #0
 80003d8:	bf04      	itt	eq
 80003da:	4601      	moveq	r1, r0
 80003dc:	2000      	moveq	r0, #0
 80003de:	fab1 f381 	clz	r3, r1
 80003e2:	bf08      	it	eq
 80003e4:	3320      	addeq	r3, #32
 80003e6:	f1a3 030b 	sub.w	r3, r3, #11
 80003ea:	f1b3 0220 	subs.w	r2, r3, #32
 80003ee:	da0c      	bge.n	800040a <__adddf3+0x16e>
 80003f0:	320c      	adds	r2, #12
 80003f2:	dd08      	ble.n	8000406 <__adddf3+0x16a>
 80003f4:	f102 0c14 	add.w	ip, r2, #20
 80003f8:	f1c2 020c 	rsb	r2, r2, #12
 80003fc:	fa01 f00c 	lsl.w	r0, r1, ip
 8000400:	fa21 f102 	lsr.w	r1, r1, r2
 8000404:	e00c      	b.n	8000420 <__adddf3+0x184>
 8000406:	f102 0214 	add.w	r2, r2, #20
 800040a:	bfd8      	it	le
 800040c:	f1c2 0c20 	rsble	ip, r2, #32
 8000410:	fa01 f102 	lsl.w	r1, r1, r2
 8000414:	fa20 fc0c 	lsr.w	ip, r0, ip
 8000418:	bfdc      	itt	le
 800041a:	ea41 010c 	orrle.w	r1, r1, ip
 800041e:	4090      	lslle	r0, r2
 8000420:	1ae4      	subs	r4, r4, r3
 8000422:	bfa2      	ittt	ge
 8000424:	eb01 5104 	addge.w	r1, r1, r4, lsl #20
 8000428:	4329      	orrge	r1, r5
 800042a:	bd30      	popge	{r4, r5, pc}
 800042c:	ea6f 0404 	mvn.w	r4, r4
 8000430:	3c1f      	subs	r4, #31
 8000432:	da1c      	bge.n	800046e <__adddf3+0x1d2>
 8000434:	340c      	adds	r4, #12
 8000436:	dc0e      	bgt.n	8000456 <__adddf3+0x1ba>
 8000438:	f104 0414 	add.w	r4, r4, #20
 800043c:	f1c4 0220 	rsb	r2, r4, #32
 8000440:	fa20 f004 	lsr.w	r0, r0, r4
 8000444:	fa01 f302 	lsl.w	r3, r1, r2
 8000448:	ea40 0003 	orr.w	r0, r0, r3
 800044c:	fa21 f304 	lsr.w	r3, r1, r4
 8000450:	ea45 0103 	orr.w	r1, r5, r3
 8000454:	bd30      	pop	{r4, r5, pc}
 8000456:	f1c4 040c 	rsb	r4, r4, #12
 800045a:	f1c4 0220 	rsb	r2, r4, #32
 800045e:	fa20 f002 	lsr.w	r0, r0, r2
 8000462:	fa01 f304 	lsl.w	r3, r1, r4
 8000466:	ea40 0003 	orr.w	r0, r0, r3
 800046a:	4629      	mov	r1, r5
 800046c:	bd30      	pop	{r4, r5, pc}
 800046e:	fa21 f004 	lsr.w	r0, r1, r4
 8000472:	4629      	mov	r1, r5
 8000474:	bd30      	pop	{r4, r5, pc}
 8000476:	f094 0f00 	teq	r4, #0
 800047a:	f483 1380 	eor.w	r3, r3, #1048576	; 0x100000
 800047e:	bf06      	itte	eq
 8000480:	f481 1180 	eoreq.w	r1, r1, #1048576	; 0x100000
 8000484:	3401      	addeq	r4, #1
 8000486:	3d01      	subne	r5, #1
 8000488:	e74e      	b.n	8000328 <__adddf3+0x8c>
 800048a:	ea7f 5c64 	mvns.w	ip, r4, asr #21
 800048e:	bf18      	it	ne
 8000490:	ea7f 5c65 	mvnsne.w	ip, r5, asr #21
 8000494:	d029      	beq.n	80004ea <__adddf3+0x24e>
 8000496:	ea94 0f05 	teq	r4, r5
 800049a:	bf08      	it	eq
 800049c:	ea90 0f02 	teqeq	r0, r2
 80004a0:	d005      	beq.n	80004ae <__adddf3+0x212>
 80004a2:	ea54 0c00 	orrs.w	ip, r4, r0
 80004a6:	bf04      	itt	eq
 80004a8:	4619      	moveq	r1, r3
 80004aa:	4610      	moveq	r0, r2
 80004ac:	bd30      	pop	{r4, r5, pc}
 80004ae:	ea91 0f03 	teq	r1, r3
 80004b2:	bf1e      	ittt	ne
 80004b4:	2100      	movne	r1, #0
 80004b6:	2000      	movne	r0, #0
 80004b8:	bd30      	popne	{r4, r5, pc}
 80004ba:	ea5f 5c54 	movs.w	ip, r4, lsr #21
 80004be:	d105      	bne.n	80004cc <__adddf3+0x230>
 80004c0:	0040      	lsls	r0, r0, #1
 80004c2:	4149      	adcs	r1, r1
 80004c4:	bf28      	it	cs
 80004c6:	f041 4100 	orrcs.w	r1, r1, #2147483648	; 0x80000000
 80004ca:	bd30      	pop	{r4, r5, pc}
 80004cc:	f514 0480 	adds.w	r4, r4, #4194304	; 0x400000
 80004d0:	bf3c      	itt	cc
 80004d2:	f501 1180 	addcc.w	r1, r1, #1048576	; 0x100000
 80004d6:	bd30      	popcc	{r4, r5, pc}
 80004d8:	f001 4500 	and.w	r5, r1, #2147483648	; 0x80000000
 80004dc:	f045 41fe 	orr.w	r1, r5, #2130706432	; 0x7f000000
 80004e0:	f441 0170 	orr.w	r1, r1, #15728640	; 0xf00000
 80004e4:	f04f 0000 	mov.w	r0, #0
 80004e8:	bd30      	pop	{r4, r5, pc}
 80004ea:	ea7f 5c64 	mvns.w	ip, r4, asr #21
 80004ee:	bf1a      	itte	ne
 80004f0:	4619      	movne	r1, r3
 80004f2:	4610      	movne	r0, r2
 80004f4:	ea7f 5c65 	mvnseq.w	ip, r5, asr #21
 80004f8:	bf1c      	itt	ne
 80004fa:	460b      	movne	r3, r1
 80004fc:	4602      	movne	r2, r0
 80004fe:	ea50 3401 	orrs.w	r4, r0, r1, lsl #12
 8000502:	bf06      	itte	eq
 8000504:	ea52 3503 	orrseq.w	r5, r2, r3, lsl #12
 8000508:	ea91 0f03 	teqeq	r1, r3
 800050c:	f441 2100 	orrne.w	r1, r1, #524288	; 0x80000
 8000510:	bd30      	pop	{r4, r5, pc}
 8000512:	bf00      	nop

08000514 <__aeabi_ui2d>:
 8000514:	f090 0f00 	teq	r0, #0
 8000518:	bf04      	itt	eq
 800051a:	2100      	moveq	r1, #0
 800051c:	4770      	bxeq	lr
 800051e:	b530      	push	{r4, r5, lr}
 8000520:	f44f 6480 	mov.w	r4, #1024	; 0x400
 8000524:	f104 0432 	add.w	r4, r4, #50	; 0x32
 8000528:	f04f 0500 	mov.w	r5, #0
 800052c:	f04f 0100 	mov.w	r1, #0
 8000530:	e750      	b.n	80003d4 <__adddf3+0x138>
 8000532:	bf00      	nop

08000534 <__aeabi_i2d>:
 8000534:	f090 0f00 	teq	r0, #0
 8000538:	bf04      	itt	eq
 800053a:	2100      	moveq	r1, #0
 800053c:	4770      	bxeq	lr
 800053e:	b530      	push	{r4, r5, lr}
 8000540:	f44f 6480 	mov.w	r4, #1024	; 0x400
 8000544:	f104 0432 	add.w	r4, r4, #50	; 0x32
 8000548:	f010 4500 	ands.w	r5, r0, #2147483648	; 0x80000000
 800054c:	bf48      	it	mi
 800054e:	4240      	negmi	r0, r0
 8000550:	f04f 0100 	mov.w	r1, #0
 8000554:	e73e      	b.n	80003d4 <__adddf3+0x138>
 8000556:	bf00      	nop

08000558 <__aeabi_f2d>:
 8000558:	0042      	lsls	r2, r0, #1
 800055a:	ea4f 01e2 	mov.w	r1, r2, asr #3
 800055e:	ea4f 0131 	mov.w	r1, r1, rrx
 8000562:	ea4f 7002 	mov.w	r0, r2, lsl #28
 8000566:	bf1f      	itttt	ne
 8000568:	f012 437f 	andsne.w	r3, r2, #4278190080	; 0xff000000
 800056c:	f093 4f7f 	teqne	r3, #4278190080	; 0xff000000
 8000570:	f081 5160 	eorne.w	r1, r1, #939524096	; 0x38000000
 8000574:	4770      	bxne	lr
 8000576:	f032 427f 	bics.w	r2, r2, #4278190080	; 0xff000000
 800057a:	bf08      	it	eq
 800057c:	4770      	bxeq	lr
 800057e:	f093 4f7f 	teq	r3, #4278190080	; 0xff000000
 8000582:	bf04      	itt	eq
 8000584:	f441 2100 	orreq.w	r1, r1, #524288	; 0x80000
 8000588:	4770      	bxeq	lr
 800058a:	b530      	push	{r4, r5, lr}
 800058c:	f44f 7460 	mov.w	r4, #896	; 0x380
 8000590:	f001 4500 	and.w	r5, r1, #2147483648	; 0x80000000
 8000594:	f021 4100 	bic.w	r1, r1, #2147483648	; 0x80000000
 8000598:	e71c      	b.n	80003d4 <__adddf3+0x138>
 800059a:	bf00      	nop

0800059c <__aeabi_ul2d>:
 800059c:	ea50 0201 	orrs.w	r2, r0, r1
 80005a0:	bf08      	it	eq
 80005a2:	4770      	bxeq	lr
 80005a4:	b530      	push	{r4, r5, lr}
 80005a6:	f04f 0500 	mov.w	r5, #0
 80005aa:	e00a      	b.n	80005c2 <__aeabi_l2d+0x16>

080005ac <__aeabi_l2d>:
 80005ac:	ea50 0201 	orrs.w	r2, r0, r1
 80005b0:	bf08      	it	eq
 80005b2:	4770      	bxeq	lr
 80005b4:	b530      	push	{r4, r5, lr}
 80005b6:	f011 4500 	ands.w	r5, r1, #2147483648	; 0x80000000
 80005ba:	d502      	bpl.n	80005c2 <__aeabi_l2d+0x16>
 80005bc:	4240      	negs	r0, r0
 80005be:	eb61 0141 	sbc.w	r1, r1, r1, lsl #1
 80005c2:	f44f 6480 	mov.w	r4, #1024	; 0x400
 80005c6:	f104 0432 	add.w	r4, r4, #50	; 0x32
 80005ca:	ea5f 5c91 	movs.w	ip, r1, lsr #22
 80005ce:	f43f aed8 	beq.w	8000382 <__adddf3+0xe6>
 80005d2:	f04f 0203 	mov.w	r2, #3
 80005d6:	ea5f 0cdc 	movs.w	ip, ip, lsr #3
 80005da:	bf18      	it	ne
 80005dc:	3203      	addne	r2, #3
 80005de:	ea5f 0cdc 	movs.w	ip, ip, lsr #3
 80005e2:	bf18      	it	ne
 80005e4:	3203      	addne	r2, #3
 80005e6:	eb02 02dc 	add.w	r2, r2, ip, lsr #3
 80005ea:	f1c2 0320 	rsb	r3, r2, #32
 80005ee:	fa00 fc03 	lsl.w	ip, r0, r3
 80005f2:	fa20 f002 	lsr.w	r0, r0, r2
 80005f6:	fa01 fe03 	lsl.w	lr, r1, r3
 80005fa:	ea40 000e 	orr.w	r0, r0, lr
 80005fe:	fa21 f102 	lsr.w	r1, r1, r2
 8000602:	4414      	add	r4, r2
 8000604:	e6bd      	b.n	8000382 <__adddf3+0xe6>
 8000606:	bf00      	nop

08000608 <__aeabi_dmul>:
 8000608:	b570      	push	{r4, r5, r6, lr}
 800060a:	f04f 0cff 	mov.w	ip, #255	; 0xff
 800060e:	f44c 6ce0 	orr.w	ip, ip, #1792	; 0x700
 8000612:	ea1c 5411 	ands.w	r4, ip, r1, lsr #20
 8000616:	bf1d      	ittte	ne
 8000618:	ea1c 5513 	andsne.w	r5, ip, r3, lsr #20
 800061c:	ea94 0f0c 	teqne	r4, ip
 8000620:	ea95 0f0c 	teqne	r5, ip
 8000624:	f000 f8de 	bleq	80007e4 <__aeabi_dmul+0x1dc>
 8000628:	442c      	add	r4, r5
 800062a:	ea81 0603 	eor.w	r6, r1, r3
 800062e:	ea21 514c 	bic.w	r1, r1, ip, lsl #21
 8000632:	ea23 534c 	bic.w	r3, r3, ip, lsl #21
 8000636:	ea50 3501 	orrs.w	r5, r0, r1, lsl #12
 800063a:	bf18      	it	ne
 800063c:	ea52 3503 	orrsne.w	r5, r2, r3, lsl #12
 8000640:	f441 1180 	orr.w	r1, r1, #1048576	; 0x100000
 8000644:	f443 1380 	orr.w	r3, r3, #1048576	; 0x100000
 8000648:	d038      	beq.n	80006bc <__aeabi_dmul+0xb4>
 800064a:	fba0 ce02 	umull	ip, lr, r0, r2
 800064e:	f04f 0500 	mov.w	r5, #0
 8000652:	fbe1 e502 	umlal	lr, r5, r1, r2
 8000656:	f006 4200 	and.w	r2, r6, #2147483648	; 0x80000000
 800065a:	fbe0 e503 	umlal	lr, r5, r0, r3
 800065e:	f04f 0600 	mov.w	r6, #0
 8000662:	fbe1 5603 	umlal	r5, r6, r1, r3
 8000666:	f09c 0f00 	teq	ip, #0
 800066a:	bf18      	it	ne
 800066c:	f04e 0e01 	orrne.w	lr, lr, #1
 8000670:	f1a4 04ff 	sub.w	r4, r4, #255	; 0xff
 8000674:	f5b6 7f00 	cmp.w	r6, #512	; 0x200
 8000678:	f564 7440 	sbc.w	r4, r4, #768	; 0x300
 800067c:	d204      	bcs.n	8000688 <__aeabi_dmul+0x80>
 800067e:	ea5f 0e4e 	movs.w	lr, lr, lsl #1
 8000682:	416d      	adcs	r5, r5
 8000684:	eb46 0606 	adc.w	r6, r6, r6
 8000688:	ea42 21c6 	orr.w	r1, r2, r6, lsl #11
 800068c:	ea41 5155 	orr.w	r1, r1, r5, lsr #21
 8000690:	ea4f 20c5 	mov.w	r0, r5, lsl #11
 8000694:	ea40 505e 	orr.w	r0, r0, lr, lsr #21
 8000698:	ea4f 2ece 	mov.w	lr, lr, lsl #11
 800069c:	f1b4 0cfd 	subs.w	ip, r4, #253	; 0xfd
 80006a0:	bf88      	it	hi
 80006a2:	f5bc 6fe0 	cmphi.w	ip, #1792	; 0x700
 80006a6:	d81e      	bhi.n	80006e6 <__aeabi_dmul+0xde>
 80006a8:	f1be 4f00 	cmp.w	lr, #2147483648	; 0x80000000
 80006ac:	bf08      	it	eq
 80006ae:	ea5f 0e50 	movseq.w	lr, r0, lsr #1
 80006b2:	f150 0000 	adcs.w	r0, r0, #0
 80006b6:	eb41 5104 	adc.w	r1, r1, r4, lsl #20
 80006ba:	bd70      	pop	{r4, r5, r6, pc}
 80006bc:	f006 4600 	and.w	r6, r6, #2147483648	; 0x80000000
 80006c0:	ea46 0101 	orr.w	r1, r6, r1
 80006c4:	ea40 0002 	orr.w	r0, r0, r2
 80006c8:	ea81 0103 	eor.w	r1, r1, r3
 80006cc:	ebb4 045c 	subs.w	r4, r4, ip, lsr #1
 80006d0:	bfc2      	ittt	gt
 80006d2:	ebd4 050c 	rsbsgt	r5, r4, ip
 80006d6:	ea41 5104 	orrgt.w	r1, r1, r4, lsl #20
 80006da:	bd70      	popgt	{r4, r5, r6, pc}
 80006dc:	f441 1180 	orr.w	r1, r1, #1048576	; 0x100000
 80006e0:	f04f 0e00 	mov.w	lr, #0
 80006e4:	3c01      	subs	r4, #1
 80006e6:	f300 80ab 	bgt.w	8000840 <__aeabi_dmul+0x238>
 80006ea:	f114 0f36 	cmn.w	r4, #54	; 0x36
 80006ee:	bfde      	ittt	le
 80006f0:	2000      	movle	r0, #0
 80006f2:	f001 4100 	andle.w	r1, r1, #2147483648	; 0x80000000
 80006f6:	bd70      	pople	{r4, r5, r6, pc}
 80006f8:	f1c4 0400 	rsb	r4, r4, #0
 80006fc:	3c20      	subs	r4, #32
 80006fe:	da35      	bge.n	800076c <__aeabi_dmul+0x164>
 8000700:	340c      	adds	r4, #12
 8000702:	dc1b      	bgt.n	800073c <__aeabi_dmul+0x134>
 8000704:	f104 0414 	add.w	r4, r4, #20
 8000708:	f1c4 0520 	rsb	r5, r4, #32
 800070c:	fa00 f305 	lsl.w	r3, r0, r5
 8000710:	fa20 f004 	lsr.w	r0, r0, r4
 8000714:	fa01 f205 	lsl.w	r2, r1, r5
 8000718:	ea40 0002 	orr.w	r0, r0, r2
 800071c:	f001 4200 	and.w	r2, r1, #2147483648	; 0x80000000
 8000720:	f021 4100 	bic.w	r1, r1, #2147483648	; 0x80000000
 8000724:	eb10 70d3 	adds.w	r0, r0, r3, lsr #31
 8000728:	fa21 f604 	lsr.w	r6, r1, r4
 800072c:	eb42 0106 	adc.w	r1, r2, r6
 8000730:	ea5e 0e43 	orrs.w	lr, lr, r3, lsl #1
 8000734:	bf08      	it	eq
 8000736:	ea20 70d3 	biceq.w	r0, r0, r3, lsr #31
 800073a:	bd70      	pop	{r4, r5, r6, pc}
 800073c:	f1c4 040c 	rsb	r4, r4, #12
 8000740:	f1c4 0520 	rsb	r5, r4, #32
 8000744:	fa00 f304 	lsl.w	r3, r0, r4
 8000748:	fa20 f005 	lsr.w	r0, r0, r5
 800074c:	fa01 f204 	lsl.w	r2, r1, r4
 8000750:	ea40 0002 	orr.w	r0, r0, r2
 8000754:	f001 4100 	and.w	r1, r1, #2147483648	; 0x80000000
 8000758:	eb10 70d3 	adds.w	r0, r0, r3, lsr #31
 800075c:	f141 0100 	adc.w	r1, r1, #0
 8000760:	ea5e 0e43 	orrs.w	lr, lr, r3, lsl #1
 8000764:	bf08      	it	eq
 8000766:	ea20 70d3 	biceq.w	r0, r0, r3, lsr #31
 800076a:	bd70      	pop	{r4, r5, r6, pc}
 800076c:	f1c4 0520 	rsb	r5, r4, #32
 8000770:	fa00 f205 	lsl.w	r2, r0, r5
 8000774:	ea4e 0e02 	orr.w	lr, lr, r2
 8000778:	fa20 f304 	lsr.w	r3, r0, r4
 800077c:	fa01 f205 	lsl.w	r2, r1, r5
 8000780:	ea43 0302 	orr.w	r3, r3, r2
 8000784:	fa21 f004 	lsr.w	r0, r1, r4
 8000788:	f001 4100 	and.w	r1, r1, #2147483648	; 0x80000000
 800078c:	fa21 f204 	lsr.w	r2, r1, r4
 8000790:	ea20 0002 	bic.w	r0, r0, r2
 8000794:	eb00 70d3 	add.w	r0, r0, r3, lsr #31
 8000798:	ea5e 0e43 	orrs.w	lr, lr, r3, lsl #1
 800079c:	bf08      	it	eq
 800079e:	ea20 70d3 	biceq.w	r0, r0, r3, lsr #31
 80007a2:	bd70      	pop	{r4, r5, r6, pc}
 80007a4:	f094 0f00 	teq	r4, #0
 80007a8:	d10f      	bne.n	80007ca <__aeabi_dmul+0x1c2>
 80007aa:	f001 4600 	and.w	r6, r1, #2147483648	; 0x80000000
 80007ae:	0040      	lsls	r0, r0, #1
 80007b0:	eb41 0101 	adc.w	r1, r1, r1
 80007b4:	f411 1f80 	tst.w	r1, #1048576	; 0x100000
 80007b8:	bf08      	it	eq
 80007ba:	3c01      	subeq	r4, #1
 80007bc:	d0f7      	beq.n	80007ae <__aeabi_dmul+0x1a6>
 80007be:	ea41 0106 	orr.w	r1, r1, r6
 80007c2:	f095 0f00 	teq	r5, #0
 80007c6:	bf18      	it	ne
 80007c8:	4770      	bxne	lr
 80007ca:	f003 4600 	and.w	r6, r3, #2147483648	; 0x80000000
 80007ce:	0052      	lsls	r2, r2, #1
 80007d0:	eb43 0303 	adc.w	r3, r3, r3
 80007d4:	f413 1f80 	tst.w	r3, #1048576	; 0x100000
 80007d8:	bf08      	it	eq
 80007da:	3d01      	subeq	r5, #1
 80007dc:	d0f7      	beq.n	80007ce <__aeabi_dmul+0x1c6>
 80007de:	ea43 0306 	orr.w	r3, r3, r6
 80007e2:	4770      	bx	lr
 80007e4:	ea94 0f0c 	teq	r4, ip
 80007e8:	ea0c 5513 	and.w	r5, ip, r3, lsr #20
 80007ec:	bf18      	it	ne
 80007ee:	ea95 0f0c 	teqne	r5, ip
 80007f2:	d00c      	beq.n	800080e <__aeabi_dmul+0x206>
 80007f4:	ea50 0641 	orrs.w	r6, r0, r1, lsl #1
 80007f8:	bf18      	it	ne
 80007fa:	ea52 0643 	orrsne.w	r6, r2, r3, lsl #1
 80007fe:	d1d1      	bne.n	80007a4 <__aeabi_dmul+0x19c>
 8000800:	ea81 0103 	eor.w	r1, r1, r3
 8000804:	f001 4100 	and.w	r1, r1, #2147483648	; 0x80000000
 8000808:	f04f 0000 	mov.w	r0, #0
 800080c:	bd70      	pop	{r4, r5, r6, pc}
 800080e:	ea50 0641 	orrs.w	r6, r0, r1, lsl #1
 8000812:	bf06      	itte	eq
 8000814:	4610      	moveq	r0, r2
 8000816:	4619      	moveq	r1, r3
 8000818:	ea52 0643 	orrsne.w	r6, r2, r3, lsl #1
 800081c:	d019      	beq.n	8000852 <__aeabi_dmul+0x24a>
 800081e:	ea94 0f0c 	teq	r4, ip
 8000822:	d102      	bne.n	800082a <__aeabi_dmul+0x222>
 8000824:	ea50 3601 	orrs.w	r6, r0, r1, lsl #12
 8000828:	d113      	bne.n	8000852 <__aeabi_dmul+0x24a>
 800082a:	ea95 0f0c 	teq	r5, ip
 800082e:	d105      	bne.n	800083c <__aeabi_dmul+0x234>
 8000830:	ea52 3603 	orrs.w	r6, r2, r3, lsl #12
 8000834:	bf1c      	itt	ne
 8000836:	4610      	movne	r0, r2
 8000838:	4619      	movne	r1, r3
 800083a:	d10a      	bne.n	8000852 <__aeabi_dmul+0x24a>
 800083c:	ea81 0103 	eor.w	r1, r1, r3
 8000840:	f001 4100 	and.w	r1, r1, #2147483648	; 0x80000000
 8000844:	f041 41fe 	orr.w	r1, r1, #2130706432	; 0x7f000000
 8000848:	f441 0170 	orr.w	r1, r1, #15728640	; 0xf00000
 800084c:	f04f 0000 	mov.w	r0, #0
 8000850:	bd70      	pop	{r4, r5, r6, pc}
 8000852:	f041 41fe 	orr.w	r1, r1, #2130706432	; 0x7f000000
 8000856:	f441 0178 	orr.w	r1, r1, #16252928	; 0xf80000
 800085a:	bd70      	pop	{r4, r5, r6, pc}

0800085c <__aeabi_ddiv>:
 800085c:	b570      	push	{r4, r5, r6, lr}
 800085e:	f04f 0cff 	mov.w	ip, #255	; 0xff
 8000862:	f44c 6ce0 	orr.w	ip, ip, #1792	; 0x700
 8000866:	ea1c 5411 	ands.w	r4, ip, r1, lsr #20
 800086a:	bf1d      	ittte	ne
 800086c:	ea1c 5513 	andsne.w	r5, ip, r3, lsr #20
 8000870:	ea94 0f0c 	teqne	r4, ip
 8000874:	ea95 0f0c 	teqne	r5, ip
 8000878:	f000 f8a7 	bleq	80009ca <__aeabi_ddiv+0x16e>
 800087c:	eba4 0405 	sub.w	r4, r4, r5
 8000880:	ea81 0e03 	eor.w	lr, r1, r3
 8000884:	ea52 3503 	orrs.w	r5, r2, r3, lsl #12
 8000888:	ea4f 3101 	mov.w	r1, r1, lsl #12
 800088c:	f000 8088 	beq.w	80009a0 <__aeabi_ddiv+0x144>
 8000890:	ea4f 3303 	mov.w	r3, r3, lsl #12
 8000894:	f04f 5580 	mov.w	r5, #268435456	; 0x10000000
 8000898:	ea45 1313 	orr.w	r3, r5, r3, lsr #4
 800089c:	ea43 6312 	orr.w	r3, r3, r2, lsr #24
 80008a0:	ea4f 2202 	mov.w	r2, r2, lsl #8
 80008a4:	ea45 1511 	orr.w	r5, r5, r1, lsr #4
 80008a8:	ea45 6510 	orr.w	r5, r5, r0, lsr #24
 80008ac:	ea4f 2600 	mov.w	r6, r0, lsl #8
 80008b0:	f00e 4100 	and.w	r1, lr, #2147483648	; 0x80000000
 80008b4:	429d      	cmp	r5, r3
 80008b6:	bf08      	it	eq
 80008b8:	4296      	cmpeq	r6, r2
 80008ba:	f144 04fd 	adc.w	r4, r4, #253	; 0xfd
 80008be:	f504 7440 	add.w	r4, r4, #768	; 0x300
 80008c2:	d202      	bcs.n	80008ca <__aeabi_ddiv+0x6e>
 80008c4:	085b      	lsrs	r3, r3, #1
 80008c6:	ea4f 0232 	mov.w	r2, r2, rrx
 80008ca:	1ab6      	subs	r6, r6, r2
 80008cc:	eb65 0503 	sbc.w	r5, r5, r3
 80008d0:	085b      	lsrs	r3, r3, #1
 80008d2:	ea4f 0232 	mov.w	r2, r2, rrx
 80008d6:	f44f 1080 	mov.w	r0, #1048576	; 0x100000
 80008da:	f44f 2c00 	mov.w	ip, #524288	; 0x80000
 80008de:	ebb6 0e02 	subs.w	lr, r6, r2
 80008e2:	eb75 0e03 	sbcs.w	lr, r5, r3
 80008e6:	bf22      	ittt	cs
 80008e8:	1ab6      	subcs	r6, r6, r2
 80008ea:	4675      	movcs	r5, lr
 80008ec:	ea40 000c 	orrcs.w	r0, r0, ip
 80008f0:	085b      	lsrs	r3, r3, #1
 80008f2:	ea4f 0232 	mov.w	r2, r2, rrx
 80008f6:	ebb6 0e02 	subs.w	lr, r6, r2
 80008fa:	eb75 0e03 	sbcs.w	lr, r5, r3
 80008fe:	bf22      	ittt	cs
 8000900:	1ab6      	subcs	r6, r6, r2
 8000902:	4675      	movcs	r5, lr
 8000904:	ea40 005c 	orrcs.w	r0, r0, ip, lsr #1
 8000908:	085b      	lsrs	r3, r3, #1
 800090a:	ea4f 0232 	mov.w	r2, r2, rrx
 800090e:	ebb6 0e02 	subs.w	lr, r6, r2
 8000912:	eb75 0e03 	sbcs.w	lr, r5, r3
 8000916:	bf22      	ittt	cs
 8000918:	1ab6      	subcs	r6, r6, r2
 800091a:	4675      	movcs	r5, lr
 800091c:	ea40 009c 	orrcs.w	r0, r0, ip, lsr #2
 8000920:	085b      	lsrs	r3, r3, #1
 8000922:	ea4f 0232 	mov.w	r2, r2, rrx
 8000926:	ebb6 0e02 	subs.w	lr, r6, r2
 800092a:	eb75 0e03 	sbcs.w	lr, r5, r3
 800092e:	bf22      	ittt	cs
 8000930:	1ab6      	subcs	r6, r6, r2
 8000932:	4675      	movcs	r5, lr
 8000934:	ea40 00dc 	orrcs.w	r0, r0, ip, lsr #3
 8000938:	ea55 0e06 	orrs.w	lr, r5, r6
 800093c:	d018      	beq.n	8000970 <__aeabi_ddiv+0x114>
 800093e:	ea4f 1505 	mov.w	r5, r5, lsl #4
 8000942:	ea45 7516 	orr.w	r5, r5, r6, lsr #28
 8000946:	ea4f 1606 	mov.w	r6, r6, lsl #4
 800094a:	ea4f 03c3 	mov.w	r3, r3, lsl #3
 800094e:	ea43 7352 	orr.w	r3, r3, r2, lsr #29
 8000952:	ea4f 02c2 	mov.w	r2, r2, lsl #3
 8000956:	ea5f 1c1c 	movs.w	ip, ip, lsr #4
 800095a:	d1c0      	bne.n	80008de <__aeabi_ddiv+0x82>
 800095c:	f411 1f80 	tst.w	r1, #1048576	; 0x100000
 8000960:	d10b      	bne.n	800097a <__aeabi_ddiv+0x11e>
 8000962:	ea41 0100 	orr.w	r1, r1, r0
 8000966:	f04f 0000 	mov.w	r0, #0
 800096a:	f04f 4c00 	mov.w	ip, #2147483648	; 0x80000000
 800096e:	e7b6      	b.n	80008de <__aeabi_ddiv+0x82>
 8000970:	f411 1f80 	tst.w	r1, #1048576	; 0x100000
 8000974:	bf04      	itt	eq
 8000976:	4301      	orreq	r1, r0
 8000978:	2000      	moveq	r0, #0
 800097a:	f1b4 0cfd 	subs.w	ip, r4, #253	; 0xfd
 800097e:	bf88      	it	hi
 8000980:	f5bc 6fe0 	cmphi.w	ip, #1792	; 0x700
 8000984:	f63f aeaf 	bhi.w	80006e6 <__aeabi_dmul+0xde>
 8000988:	ebb5 0c03 	subs.w	ip, r5, r3
 800098c:	bf04      	itt	eq
 800098e:	ebb6 0c02 	subseq.w	ip, r6, r2
 8000992:	ea5f 0c50 	movseq.w	ip, r0, lsr #1
 8000996:	f150 0000 	adcs.w	r0, r0, #0
 800099a:	eb41 5104 	adc.w	r1, r1, r4, lsl #20
 800099e:	bd70      	pop	{r4, r5, r6, pc}
 80009a0:	f00e 4e00 	and.w	lr, lr, #2147483648	; 0x80000000
 80009a4:	ea4e 3111 	orr.w	r1, lr, r1, lsr #12
 80009a8:	eb14 045c 	adds.w	r4, r4, ip, lsr #1
 80009ac:	bfc2      	ittt	gt
 80009ae:	ebd4 050c 	rsbsgt	r5, r4, ip
 80009b2:	ea41 5104 	orrgt.w	r1, r1, r4, lsl #20
 80009b6:	bd70      	popgt	{r4, r5, r6, pc}
 80009b8:	f441 1180 	orr.w	r1, r1, #1048576	; 0x100000
 80009bc:	f04f 0e00 	mov.w	lr, #0
 80009c0:	3c01      	subs	r4, #1
 80009c2:	e690      	b.n	80006e6 <__aeabi_dmul+0xde>
 80009c4:	ea45 0e06 	orr.w	lr, r5, r6
 80009c8:	e68d      	b.n	80006e6 <__aeabi_dmul+0xde>
 80009ca:	ea0c 5513 	and.w	r5, ip, r3, lsr #20
 80009ce:	ea94 0f0c 	teq	r4, ip
 80009d2:	bf08      	it	eq
 80009d4:	ea95 0f0c 	teqeq	r5, ip
 80009d8:	f43f af3b 	beq.w	8000852 <__aeabi_dmul+0x24a>
 80009dc:	ea94 0f0c 	teq	r4, ip
 80009e0:	d10a      	bne.n	80009f8 <__aeabi_ddiv+0x19c>
 80009e2:	ea50 3401 	orrs.w	r4, r0, r1, lsl #12
 80009e6:	f47f af34 	bne.w	8000852 <__aeabi_dmul+0x24a>
 80009ea:	ea95 0f0c 	teq	r5, ip
 80009ee:	f47f af25 	bne.w	800083c <__aeabi_dmul+0x234>
 80009f2:	4610      	mov	r0, r2
 80009f4:	4619      	mov	r1, r3
 80009f6:	e72c      	b.n	8000852 <__aeabi_dmul+0x24a>
 80009f8:	ea95 0f0c 	teq	r5, ip
 80009fc:	d106      	bne.n	8000a0c <__aeabi_ddiv+0x1b0>
 80009fe:	ea52 3503 	orrs.w	r5, r2, r3, lsl #12
 8000a02:	f43f aefd 	beq.w	8000800 <__aeabi_dmul+0x1f8>
 8000a06:	4610      	mov	r0, r2
 8000a08:	4619      	mov	r1, r3
 8000a0a:	e722      	b.n	8000852 <__aeabi_dmul+0x24a>
 8000a0c:	ea50 0641 	orrs.w	r6, r0, r1, lsl #1
 8000a10:	bf18      	it	ne
 8000a12:	ea52 0643 	orrsne.w	r6, r2, r3, lsl #1
 8000a16:	f47f aec5 	bne.w	80007a4 <__aeabi_dmul+0x19c>
 8000a1a:	ea50 0441 	orrs.w	r4, r0, r1, lsl #1
 8000a1e:	f47f af0d 	bne.w	800083c <__aeabi_dmul+0x234>
 8000a22:	ea52 0543 	orrs.w	r5, r2, r3, lsl #1
 8000a26:	f47f aeeb 	bne.w	8000800 <__aeabi_dmul+0x1f8>
 8000a2a:	e712      	b.n	8000852 <__aeabi_dmul+0x24a>

08000a2c <__gedf2>:
 8000a2c:	f04f 3cff 	mov.w	ip, #4294967295	; 0xffffffff
 8000a30:	e006      	b.n	8000a40 <__cmpdf2+0x4>
 8000a32:	bf00      	nop

08000a34 <__ledf2>:
 8000a34:	f04f 0c01 	mov.w	ip, #1
 8000a38:	e002      	b.n	8000a40 <__cmpdf2+0x4>
 8000a3a:	bf00      	nop

08000a3c <__cmpdf2>:
 8000a3c:	f04f 0c01 	mov.w	ip, #1
 8000a40:	f84d cd04 	str.w	ip, [sp, #-4]!
 8000a44:	ea4f 0c41 	mov.w	ip, r1, lsl #1
 8000a48:	ea7f 5c6c 	mvns.w	ip, ip, asr #21
 8000a4c:	ea4f 0c43 	mov.w	ip, r3, lsl #1
 8000a50:	bf18      	it	ne
 8000a52:	ea7f 5c6c 	mvnsne.w	ip, ip, asr #21
 8000a56:	d01b      	beq.n	8000a90 <__cmpdf2+0x54>
 8000a58:	b001      	add	sp, #4
 8000a5a:	ea50 0c41 	orrs.w	ip, r0, r1, lsl #1
 8000a5e:	bf0c      	ite	eq
 8000a60:	ea52 0c43 	orrseq.w	ip, r2, r3, lsl #1
 8000a64:	ea91 0f03 	teqne	r1, r3
 8000a68:	bf02      	ittt	eq
 8000a6a:	ea90 0f02 	teqeq	r0, r2
 8000a6e:	2000      	moveq	r0, #0
 8000a70:	4770      	bxeq	lr
 8000a72:	f110 0f00 	cmn.w	r0, #0
 8000a76:	ea91 0f03 	teq	r1, r3
 8000a7a:	bf58      	it	pl
 8000a7c:	4299      	cmppl	r1, r3
 8000a7e:	bf08      	it	eq
 8000a80:	4290      	cmpeq	r0, r2
 8000a82:	bf2c      	ite	cs
 8000a84:	17d8      	asrcs	r0, r3, #31
 8000a86:	ea6f 70e3 	mvncc.w	r0, r3, asr #31
 8000a8a:	f040 0001 	orr.w	r0, r0, #1
 8000a8e:	4770      	bx	lr
 8000a90:	ea4f 0c41 	mov.w	ip, r1, lsl #1
 8000a94:	ea7f 5c6c 	mvns.w	ip, ip, asr #21
 8000a98:	d102      	bne.n	8000aa0 <__cmpdf2+0x64>
 8000a9a:	ea50 3c01 	orrs.w	ip, r0, r1, lsl #12
 8000a9e:	d107      	bne.n	8000ab0 <__cmpdf2+0x74>
 8000aa0:	ea4f 0c43 	mov.w	ip, r3, lsl #1
 8000aa4:	ea7f 5c6c 	mvns.w	ip, ip, asr #21
 8000aa8:	d1d6      	bne.n	8000a58 <__cmpdf2+0x1c>
 8000aaa:	ea52 3c03 	orrs.w	ip, r2, r3, lsl #12
 8000aae:	d0d3      	beq.n	8000a58 <__cmpdf2+0x1c>
 8000ab0:	f85d 0b04 	ldr.w	r0, [sp], #4
 8000ab4:	4770      	bx	lr
 8000ab6:	bf00      	nop

08000ab8 <__aeabi_cdrcmple>:
 8000ab8:	4684      	mov	ip, r0
 8000aba:	4610      	mov	r0, r2
 8000abc:	4662      	mov	r2, ip
 8000abe:	468c      	mov	ip, r1
 8000ac0:	4619      	mov	r1, r3
 8000ac2:	4663      	mov	r3, ip
 8000ac4:	e000      	b.n	8000ac8 <__aeabi_cdcmpeq>
 8000ac6:	bf00      	nop

08000ac8 <__aeabi_cdcmpeq>:
 8000ac8:	b501      	push	{r0, lr}
 8000aca:	f7ff ffb7 	bl	8000a3c <__cmpdf2>
 8000ace:	2800      	cmp	r0, #0
 8000ad0:	bf48      	it	mi
 8000ad2:	f110 0f00 	cmnmi.w	r0, #0
 8000ad6:	bd01      	pop	{r0, pc}

08000ad8 <__aeabi_dcmpeq>:
 8000ad8:	f84d ed08 	str.w	lr, [sp, #-8]!
 8000adc:	f7ff fff4 	bl	8000ac8 <__aeabi_cdcmpeq>
 8000ae0:	bf0c      	ite	eq
 8000ae2:	2001      	moveq	r0, #1
 8000ae4:	2000      	movne	r0, #0
 8000ae6:	f85d fb08 	ldr.w	pc, [sp], #8
 8000aea:	bf00      	nop

08000aec <__aeabi_dcmplt>:
 8000aec:	f84d ed08 	str.w	lr, [sp, #-8]!
 8000af0:	f7ff ffea 	bl	8000ac8 <__aeabi_cdcmpeq>
 8000af4:	bf34      	ite	cc
 8000af6:	2001      	movcc	r0, #1
 8000af8:	2000      	movcs	r0, #0
 8000afa:	f85d fb08 	ldr.w	pc, [sp], #8
 8000afe:	bf00      	nop

08000b00 <__aeabi_dcmple>:
 8000b00:	f84d ed08 	str.w	lr, [sp, #-8]!
 8000b04:	f7ff ffe0 	bl	8000ac8 <__aeabi_cdcmpeq>
 8000b08:	bf94      	ite	ls
 8000b0a:	2001      	movls	r0, #1
 8000b0c:	2000      	movhi	r0, #0
 8000b0e:	f85d fb08 	ldr.w	pc, [sp], #8
 8000b12:	bf00      	nop

08000b14 <__aeabi_dcmpge>:
 8000b14:	f84d ed08 	str.w	lr, [sp, #-8]!
 8000b18:	f7ff ffce 	bl	8000ab8 <__aeabi_cdrcmple>
 8000b1c:	bf94      	ite	ls
 8000b1e:	2001      	movls	r0, #1
 8000b20:	2000      	movhi	r0, #0
 8000b22:	f85d fb08 	ldr.w	pc, [sp], #8
 8000b26:	bf00      	nop

08000b28 <__aeabi_dcmpgt>:
 8000b28:	f84d ed08 	str.w	lr, [sp, #-8]!
 8000b2c:	f7ff ffc4 	bl	8000ab8 <__aeabi_cdrcmple>
 8000b30:	bf34      	ite	cc
 8000b32:	2001      	movcc	r0, #1
 8000b34:	2000      	movcs	r0, #0
 8000b36:	f85d fb08 	ldr.w	pc, [sp], #8
 8000b3a:	bf00      	nop

08000b3c <__aeabi_d2iz>:
 8000b3c:	ea4f 0241 	mov.w	r2, r1, lsl #1
 8000b40:	f512 1200 	adds.w	r2, r2, #2097152	; 0x200000
 8000b44:	d215      	bcs.n	8000b72 <__aeabi_d2iz+0x36>
 8000b46:	d511      	bpl.n	8000b6c <__aeabi_d2iz+0x30>
 8000b48:	f46f 7378 	mvn.w	r3, #992	; 0x3e0
 8000b4c:	ebb3 5262 	subs.w	r2, r3, r2, asr #21
 8000b50:	d912      	bls.n	8000b78 <__aeabi_d2iz+0x3c>
 8000b52:	ea4f 23c1 	mov.w	r3, r1, lsl #11
 8000b56:	f043 4300 	orr.w	r3, r3, #2147483648	; 0x80000000
 8000b5a:	ea43 5350 	orr.w	r3, r3, r0, lsr #21
 8000b5e:	f011 4f00 	tst.w	r1, #2147483648	; 0x80000000
 8000b62:	fa23 f002 	lsr.w	r0, r3, r2
 8000b66:	bf18      	it	ne
 8000b68:	4240      	negne	r0, r0
 8000b6a:	4770      	bx	lr
 8000b6c:	f04f 0000 	mov.w	r0, #0
 8000b70:	4770      	bx	lr
 8000b72:	ea50 3001 	orrs.w	r0, r0, r1, lsl #12
 8000b76:	d105      	bne.n	8000b84 <__aeabi_d2iz+0x48>
 8000b78:	f011 4000 	ands.w	r0, r1, #2147483648	; 0x80000000
 8000b7c:	bf08      	it	eq
 8000b7e:	f06f 4000 	mvneq.w	r0, #2147483648	; 0x80000000
 8000b82:	4770      	bx	lr
 8000b84:	f04f 0000 	mov.w	r0, #0
 8000b88:	4770      	bx	lr
 8000b8a:	bf00      	nop

08000b8c <__aeabi_ldivmod>:
 8000b8c:	b97b      	cbnz	r3, 8000bae <__aeabi_ldivmod+0x22>
 8000b8e:	b972      	cbnz	r2, 8000bae <__aeabi_ldivmod+0x22>
 8000b90:	2900      	cmp	r1, #0
 8000b92:	bfbe      	ittt	lt
 8000b94:	2000      	movlt	r0, #0
 8000b96:	f04f 4100 	movlt.w	r1, #2147483648	; 0x80000000
 8000b9a:	e006      	blt.n	8000baa <__aeabi_ldivmod+0x1e>
 8000b9c:	bf08      	it	eq
 8000b9e:	2800      	cmpeq	r0, #0
 8000ba0:	bf1c      	itt	ne
 8000ba2:	f06f 4100 	mvnne.w	r1, #2147483648	; 0x80000000
 8000ba6:	f04f 30ff 	movne.w	r0, #4294967295	; 0xffffffff
 8000baa:	f000 ba03 	b.w	8000fb4 <__aeabi_idiv0>
 8000bae:	f1ad 0c08 	sub.w	ip, sp, #8
 8000bb2:	e96d ce04 	strd	ip, lr, [sp, #-16]!
 8000bb6:	2900      	cmp	r1, #0
 8000bb8:	db09      	blt.n	8000bce <__aeabi_ldivmod+0x42>
 8000bba:	2b00      	cmp	r3, #0
 8000bbc:	db1a      	blt.n	8000bf4 <__aeabi_ldivmod+0x68>
 8000bbe:	f000 f883 	bl	8000cc8 <__udivmoddi4>
 8000bc2:	f8dd e004 	ldr.w	lr, [sp, #4]
 8000bc6:	e9dd 2302 	ldrd	r2, r3, [sp, #8]
 8000bca:	b004      	add	sp, #16
 8000bcc:	4770      	bx	lr
 8000bce:	4240      	negs	r0, r0
 8000bd0:	eb61 0141 	sbc.w	r1, r1, r1, lsl #1
 8000bd4:	2b00      	cmp	r3, #0
 8000bd6:	db1b      	blt.n	8000c10 <__aeabi_ldivmod+0x84>
 8000bd8:	f000 f876 	bl	8000cc8 <__udivmoddi4>
 8000bdc:	f8dd e004 	ldr.w	lr, [sp, #4]
 8000be0:	e9dd 2302 	ldrd	r2, r3, [sp, #8]
 8000be4:	b004      	add	sp, #16
 8000be6:	4240      	negs	r0, r0
 8000be8:	eb61 0141 	sbc.w	r1, r1, r1, lsl #1
 8000bec:	4252      	negs	r2, r2
 8000bee:	eb63 0343 	sbc.w	r3, r3, r3, lsl #1
 8000bf2:	4770      	bx	lr
 8000bf4:	4252      	negs	r2, r2
 8000bf6:	eb63 0343 	sbc.w	r3, r3, r3, lsl #1
 8000bfa:	f000 f865 	bl	8000cc8 <__udivmoddi4>
 8000bfe:	f8dd e004 	ldr.w	lr, [sp, #4]
 8000c02:	e9dd 2302 	ldrd	r2, r3, [sp, #8]
 8000c06:	b004      	add	sp, #16
 8000c08:	4240      	negs	r0, r0
 8000c0a:	eb61 0141 	sbc.w	r1, r1, r1, lsl #1
 8000c0e:	4770      	bx	lr
 8000c10:	4252      	negs	r2, r2
 8000c12:	eb63 0343 	sbc.w	r3, r3, r3, lsl #1
 8000c16:	f000 f857 	bl	8000cc8 <__udivmoddi4>
 8000c1a:	f8dd e004 	ldr.w	lr, [sp, #4]
 8000c1e:	e9dd 2302 	ldrd	r2, r3, [sp, #8]
 8000c22:	b004      	add	sp, #16
 8000c24:	4252      	negs	r2, r2
 8000c26:	eb63 0343 	sbc.w	r3, r3, r3, lsl #1
 8000c2a:	4770      	bx	lr

08000c2c <__aeabi_uldivmod>:
 8000c2c:	b953      	cbnz	r3, 8000c44 <__aeabi_uldivmod+0x18>
 8000c2e:	b94a      	cbnz	r2, 8000c44 <__aeabi_uldivmod+0x18>
 8000c30:	2900      	cmp	r1, #0
 8000c32:	bf08      	it	eq
 8000c34:	2800      	cmpeq	r0, #0
 8000c36:	bf1c      	itt	ne
 8000c38:	f04f 31ff 	movne.w	r1, #4294967295	; 0xffffffff
 8000c3c:	f04f 30ff 	movne.w	r0, #4294967295	; 0xffffffff
 8000c40:	f000 b9b8 	b.w	8000fb4 <__aeabi_idiv0>
 8000c44:	f1ad 0c08 	sub.w	ip, sp, #8
 8000c48:	e96d ce04 	strd	ip, lr, [sp, #-16]!
 8000c4c:	f000 f83c 	bl	8000cc8 <__udivmoddi4>
 8000c50:	f8dd e004 	ldr.w	lr, [sp, #4]
 8000c54:	e9dd 2302 	ldrd	r2, r3, [sp, #8]
 8000c58:	b004      	add	sp, #16
 8000c5a:	4770      	bx	lr

08000c5c <__aeabi_d2lz>:
 8000c5c:	b538      	push	{r3, r4, r5, lr}
 8000c5e:	2200      	movs	r2, #0
 8000c60:	2300      	movs	r3, #0
 8000c62:	4604      	mov	r4, r0
 8000c64:	460d      	mov	r5, r1
 8000c66:	f7ff ff41 	bl	8000aec <__aeabi_dcmplt>
 8000c6a:	b928      	cbnz	r0, 8000c78 <__aeabi_d2lz+0x1c>
 8000c6c:	4620      	mov	r0, r4
 8000c6e:	4629      	mov	r1, r5
 8000c70:	e8bd 4038 	ldmia.w	sp!, {r3, r4, r5, lr}
 8000c74:	f000 b80a 	b.w	8000c8c <__aeabi_d2ulz>
 8000c78:	4620      	mov	r0, r4
 8000c7a:	f105 4100 	add.w	r1, r5, #2147483648	; 0x80000000
 8000c7e:	f000 f805 	bl	8000c8c <__aeabi_d2ulz>
 8000c82:	4240      	negs	r0, r0
 8000c84:	eb61 0141 	sbc.w	r1, r1, r1, lsl #1
 8000c88:	bd38      	pop	{r3, r4, r5, pc}
 8000c8a:	bf00      	nop

08000c8c <__aeabi_d2ulz>:
 8000c8c:	b5d0      	push	{r4, r6, r7, lr}
 8000c8e:	2200      	movs	r2, #0
 8000c90:	4b0b      	ldr	r3, [pc, #44]	; (8000cc0 <__aeabi_d2ulz+0x34>)
 8000c92:	4606      	mov	r6, r0
 8000c94:	460f      	mov	r7, r1
 8000c96:	f7ff fcb7 	bl	8000608 <__aeabi_dmul>
 8000c9a:	f000 f98d 	bl	8000fb8 <__aeabi_d2uiz>
 8000c9e:	4604      	mov	r4, r0
 8000ca0:	f7ff fc38 	bl	8000514 <__aeabi_ui2d>
 8000ca4:	2200      	movs	r2, #0
 8000ca6:	4b07      	ldr	r3, [pc, #28]	; (8000cc4 <__aeabi_d2ulz+0x38>)
 8000ca8:	f7ff fcae 	bl	8000608 <__aeabi_dmul>
 8000cac:	4602      	mov	r2, r0
 8000cae:	460b      	mov	r3, r1
 8000cb0:	4630      	mov	r0, r6
 8000cb2:	4639      	mov	r1, r7
 8000cb4:	f7ff faf0 	bl	8000298 <__aeabi_dsub>
 8000cb8:	f000 f97e 	bl	8000fb8 <__aeabi_d2uiz>
 8000cbc:	4621      	mov	r1, r4
 8000cbe:	bdd0      	pop	{r4, r6, r7, pc}
 8000cc0:	3df00000 	.word	0x3df00000
 8000cc4:	41f00000 	.word	0x41f00000

08000cc8 <__udivmoddi4>:
 8000cc8:	e92d 4ff0 	stmdb	sp!, {r4, r5, r6, r7, r8, r9, sl, fp, lr}
 8000ccc:	9d09      	ldr	r5, [sp, #36]	; 0x24
 8000cce:	4604      	mov	r4, r0
 8000cd0:	460f      	mov	r7, r1
 8000cd2:	2b00      	cmp	r3, #0
 8000cd4:	d148      	bne.n	8000d68 <__udivmoddi4+0xa0>
 8000cd6:	428a      	cmp	r2, r1
 8000cd8:	4694      	mov	ip, r2
 8000cda:	d961      	bls.n	8000da0 <__udivmoddi4+0xd8>
 8000cdc:	fab2 f382 	clz	r3, r2
 8000ce0:	b143      	cbz	r3, 8000cf4 <__udivmoddi4+0x2c>
 8000ce2:	f1c3 0120 	rsb	r1, r3, #32
 8000ce6:	409f      	lsls	r7, r3
 8000ce8:	fa02 fc03 	lsl.w	ip, r2, r3
 8000cec:	409c      	lsls	r4, r3
 8000cee:	fa20 f101 	lsr.w	r1, r0, r1
 8000cf2:	430f      	orrs	r7, r1
 8000cf4:	ea4f 411c 	mov.w	r1, ip, lsr #16
 8000cf8:	fa1f fe8c 	uxth.w	lr, ip
 8000cfc:	0c22      	lsrs	r2, r4, #16
 8000cfe:	fbb7 f6f1 	udiv	r6, r7, r1
 8000d02:	fb01 7716 	mls	r7, r1, r6, r7
 8000d06:	fb06 f00e 	mul.w	r0, r6, lr
 8000d0a:	ea42 4207 	orr.w	r2, r2, r7, lsl #16
 8000d0e:	4290      	cmp	r0, r2
 8000d10:	d908      	bls.n	8000d24 <__udivmoddi4+0x5c>
 8000d12:	eb1c 0202 	adds.w	r2, ip, r2
 8000d16:	f106 37ff 	add.w	r7, r6, #4294967295	; 0xffffffff
 8000d1a:	d202      	bcs.n	8000d22 <__udivmoddi4+0x5a>
 8000d1c:	4290      	cmp	r0, r2
 8000d1e:	f200 8137 	bhi.w	8000f90 <__udivmoddi4+0x2c8>
 8000d22:	463e      	mov	r6, r7
 8000d24:	1a12      	subs	r2, r2, r0
 8000d26:	b2a4      	uxth	r4, r4
 8000d28:	fbb2 f0f1 	udiv	r0, r2, r1
 8000d2c:	fb01 2210 	mls	r2, r1, r0, r2
 8000d30:	fb00 fe0e 	mul.w	lr, r0, lr
 8000d34:	ea44 4402 	orr.w	r4, r4, r2, lsl #16
 8000d38:	45a6      	cmp	lr, r4
 8000d3a:	d908      	bls.n	8000d4e <__udivmoddi4+0x86>
 8000d3c:	eb1c 0404 	adds.w	r4, ip, r4
 8000d40:	f100 32ff 	add.w	r2, r0, #4294967295	; 0xffffffff
 8000d44:	d202      	bcs.n	8000d4c <__udivmoddi4+0x84>
 8000d46:	45a6      	cmp	lr, r4
 8000d48:	f200 811c 	bhi.w	8000f84 <__udivmoddi4+0x2bc>
 8000d4c:	4610      	mov	r0, r2
 8000d4e:	ea40 4006 	orr.w	r0, r0, r6, lsl #16
 8000d52:	eba4 040e 	sub.w	r4, r4, lr
 8000d56:	2600      	movs	r6, #0
 8000d58:	b11d      	cbz	r5, 8000d62 <__udivmoddi4+0x9a>
 8000d5a:	40dc      	lsrs	r4, r3
 8000d5c:	2300      	movs	r3, #0
 8000d5e:	e9c5 4300 	strd	r4, r3, [r5]
 8000d62:	4631      	mov	r1, r6
 8000d64:	e8bd 8ff0 	ldmia.w	sp!, {r4, r5, r6, r7, r8, r9, sl, fp, pc}
 8000d68:	428b      	cmp	r3, r1
 8000d6a:	d909      	bls.n	8000d80 <__udivmoddi4+0xb8>
 8000d6c:	2d00      	cmp	r5, #0
 8000d6e:	f000 80fd 	beq.w	8000f6c <__udivmoddi4+0x2a4>
 8000d72:	2600      	movs	r6, #0
 8000d74:	e9c5 0100 	strd	r0, r1, [r5]
 8000d78:	4630      	mov	r0, r6
 8000d7a:	4631      	mov	r1, r6
 8000d7c:	e8bd 8ff0 	ldmia.w	sp!, {r4, r5, r6, r7, r8, r9, sl, fp, pc}
 8000d80:	fab3 f683 	clz	r6, r3
 8000d84:	2e00      	cmp	r6, #0
 8000d86:	d14b      	bne.n	8000e20 <__udivmoddi4+0x158>
 8000d88:	428b      	cmp	r3, r1
 8000d8a:	f0c0 80f2 	bcc.w	8000f72 <__udivmoddi4+0x2aa>
 8000d8e:	4282      	cmp	r2, r0
 8000d90:	f240 80ef 	bls.w	8000f72 <__udivmoddi4+0x2aa>
 8000d94:	4630      	mov	r0, r6
 8000d96:	2d00      	cmp	r5, #0
 8000d98:	d0e3      	beq.n	8000d62 <__udivmoddi4+0x9a>
 8000d9a:	e9c5 4700 	strd	r4, r7, [r5]
 8000d9e:	e7e0      	b.n	8000d62 <__udivmoddi4+0x9a>
 8000da0:	b902      	cbnz	r2, 8000da4 <__udivmoddi4+0xdc>
 8000da2:	deff      	udf	#255	; 0xff
 8000da4:	fab2 f382 	clz	r3, r2
 8000da8:	2b00      	cmp	r3, #0
 8000daa:	f040 809d 	bne.w	8000ee8 <__udivmoddi4+0x220>
 8000dae:	1a89      	subs	r1, r1, r2
 8000db0:	ea4f 4e12 	mov.w	lr, r2, lsr #16
 8000db4:	b297      	uxth	r7, r2
 8000db6:	2601      	movs	r6, #1
 8000db8:	0c20      	lsrs	r0, r4, #16
 8000dba:	fbb1 f2fe 	udiv	r2, r1, lr
 8000dbe:	fb0e 1112 	mls	r1, lr, r2, r1
 8000dc2:	ea40 4101 	orr.w	r1, r0, r1, lsl #16
 8000dc6:	fb07 f002 	mul.w	r0, r7, r2
 8000dca:	4288      	cmp	r0, r1
 8000dcc:	d90f      	bls.n	8000dee <__udivmoddi4+0x126>
 8000dce:	eb1c 0101 	adds.w	r1, ip, r1
 8000dd2:	f102 38ff 	add.w	r8, r2, #4294967295	; 0xffffffff
 8000dd6:	bf2c      	ite	cs
 8000dd8:	f04f 0901 	movcs.w	r9, #1
 8000ddc:	f04f 0900 	movcc.w	r9, #0
 8000de0:	4288      	cmp	r0, r1
 8000de2:	d903      	bls.n	8000dec <__udivmoddi4+0x124>
 8000de4:	f1b9 0f00 	cmp.w	r9, #0
 8000de8:	f000 80cf 	beq.w	8000f8a <__udivmoddi4+0x2c2>
 8000dec:	4642      	mov	r2, r8
 8000dee:	1a09      	subs	r1, r1, r0
 8000df0:	b2a4      	uxth	r4, r4
 8000df2:	fbb1 f0fe 	udiv	r0, r1, lr
 8000df6:	fb0e 1110 	mls	r1, lr, r0, r1
 8000dfa:	fb00 f707 	mul.w	r7, r0, r7
 8000dfe:	ea44 4401 	orr.w	r4, r4, r1, lsl #16
 8000e02:	42a7      	cmp	r7, r4
 8000e04:	d908      	bls.n	8000e18 <__udivmoddi4+0x150>
 8000e06:	eb1c 0404 	adds.w	r4, ip, r4
 8000e0a:	f100 31ff 	add.w	r1, r0, #4294967295	; 0xffffffff
 8000e0e:	d202      	bcs.n	8000e16 <__udivmoddi4+0x14e>
 8000e10:	42a7      	cmp	r7, r4
 8000e12:	f200 80b4 	bhi.w	8000f7e <__udivmoddi4+0x2b6>
 8000e16:	4608      	mov	r0, r1
 8000e18:	1be4      	subs	r4, r4, r7
 8000e1a:	ea40 4002 	orr.w	r0, r0, r2, lsl #16
 8000e1e:	e79b      	b.n	8000d58 <__udivmoddi4+0x90>
 8000e20:	f1c6 0720 	rsb	r7, r6, #32
 8000e24:	40b3      	lsls	r3, r6
 8000e26:	fa01 f406 	lsl.w	r4, r1, r6
 8000e2a:	fa22 fc07 	lsr.w	ip, r2, r7
 8000e2e:	40f9      	lsrs	r1, r7
 8000e30:	40b2      	lsls	r2, r6
 8000e32:	ea4c 0c03 	orr.w	ip, ip, r3
 8000e36:	fa20 f307 	lsr.w	r3, r0, r7
 8000e3a:	ea4f 491c 	mov.w	r9, ip, lsr #16
 8000e3e:	431c      	orrs	r4, r3
 8000e40:	fa1f fe8c 	uxth.w	lr, ip
 8000e44:	fa00 f306 	lsl.w	r3, r0, r6
 8000e48:	0c20      	lsrs	r0, r4, #16
 8000e4a:	fbb1 f8f9 	udiv	r8, r1, r9
 8000e4e:	fb09 1118 	mls	r1, r9, r8, r1
 8000e52:	ea40 4101 	orr.w	r1, r0, r1, lsl #16
 8000e56:	fb08 f00e 	mul.w	r0, r8, lr
 8000e5a:	4288      	cmp	r0, r1
 8000e5c:	d90f      	bls.n	8000e7e <__udivmoddi4+0x1b6>
 8000e5e:	eb1c 0101 	adds.w	r1, ip, r1
 8000e62:	f108 3aff 	add.w	sl, r8, #4294967295	; 0xffffffff
 8000e66:	bf2c      	ite	cs
 8000e68:	f04f 0b01 	movcs.w	fp, #1
 8000e6c:	f04f 0b00 	movcc.w	fp, #0
 8000e70:	4288      	cmp	r0, r1
 8000e72:	d903      	bls.n	8000e7c <__udivmoddi4+0x1b4>
 8000e74:	f1bb 0f00 	cmp.w	fp, #0
 8000e78:	f000 808d 	beq.w	8000f96 <__udivmoddi4+0x2ce>
 8000e7c:	46d0      	mov	r8, sl
 8000e7e:	1a09      	subs	r1, r1, r0
 8000e80:	b2a4      	uxth	r4, r4
 8000e82:	fbb1 f0f9 	udiv	r0, r1, r9
 8000e86:	fb09 1110 	mls	r1, r9, r0, r1
 8000e8a:	fb00 fe0e 	mul.w	lr, r0, lr
 8000e8e:	ea44 4101 	orr.w	r1, r4, r1, lsl #16
 8000e92:	458e      	cmp	lr, r1
 8000e94:	d907      	bls.n	8000ea6 <__udivmoddi4+0x1de>
 8000e96:	eb1c 0101 	adds.w	r1, ip, r1
 8000e9a:	f100 34ff 	add.w	r4, r0, #4294967295	; 0xffffffff
 8000e9e:	d201      	bcs.n	8000ea4 <__udivmoddi4+0x1dc>
 8000ea0:	458e      	cmp	lr, r1
 8000ea2:	d87f      	bhi.n	8000fa4 <__udivmoddi4+0x2dc>
 8000ea4:	4620      	mov	r0, r4
 8000ea6:	ea40 4008 	orr.w	r0, r0, r8, lsl #16
 8000eaa:	eba1 010e 	sub.w	r1, r1, lr
 8000eae:	fba0 9802 	umull	r9, r8, r0, r2
 8000eb2:	4541      	cmp	r1, r8
 8000eb4:	464c      	mov	r4, r9
 8000eb6:	46c6      	mov	lr, r8
 8000eb8:	d302      	bcc.n	8000ec0 <__udivmoddi4+0x1f8>
 8000eba:	d106      	bne.n	8000eca <__udivmoddi4+0x202>
 8000ebc:	454b      	cmp	r3, r9
 8000ebe:	d204      	bcs.n	8000eca <__udivmoddi4+0x202>
 8000ec0:	3801      	subs	r0, #1
 8000ec2:	ebb9 0402 	subs.w	r4, r9, r2
 8000ec6:	eb68 0e0c 	sbc.w	lr, r8, ip
 8000eca:	2d00      	cmp	r5, #0
 8000ecc:	d070      	beq.n	8000fb0 <__udivmoddi4+0x2e8>
 8000ece:	1b1a      	subs	r2, r3, r4
 8000ed0:	eb61 010e 	sbc.w	r1, r1, lr
 8000ed4:	fa22 f306 	lsr.w	r3, r2, r6
 8000ed8:	fa01 f707 	lsl.w	r7, r1, r7
 8000edc:	40f1      	lsrs	r1, r6
 8000ede:	2600      	movs	r6, #0
 8000ee0:	431f      	orrs	r7, r3
 8000ee2:	e9c5 7100 	strd	r7, r1, [r5]
 8000ee6:	e73c      	b.n	8000d62 <__udivmoddi4+0x9a>
 8000ee8:	fa02 fc03 	lsl.w	ip, r2, r3
 8000eec:	f1c3 0020 	rsb	r0, r3, #32
 8000ef0:	fa01 f203 	lsl.w	r2, r1, r3
 8000ef4:	fa21 f600 	lsr.w	r6, r1, r0
 8000ef8:	ea4f 4e1c 	mov.w	lr, ip, lsr #16
 8000efc:	fa24 f100 	lsr.w	r1, r4, r0
 8000f00:	fa1f f78c 	uxth.w	r7, ip
 8000f04:	409c      	lsls	r4, r3
 8000f06:	4311      	orrs	r1, r2
 8000f08:	fbb6 f0fe 	udiv	r0, r6, lr
 8000f0c:	0c0a      	lsrs	r2, r1, #16
 8000f0e:	fb0e 6610 	mls	r6, lr, r0, r6
 8000f12:	ea42 4206 	orr.w	r2, r2, r6, lsl #16
 8000f16:	fb00 f607 	mul.w	r6, r0, r7
 8000f1a:	4296      	cmp	r6, r2
 8000f1c:	d90e      	bls.n	8000f3c <__udivmoddi4+0x274>
 8000f1e:	eb1c 0202 	adds.w	r2, ip, r2
 8000f22:	f100 38ff 	add.w	r8, r0, #4294967295	; 0xffffffff
 8000f26:	bf2c      	ite	cs
 8000f28:	f04f 0901 	movcs.w	r9, #1
 8000f2c:	f04f 0900 	movcc.w	r9, #0
 8000f30:	4296      	cmp	r6, r2
 8000f32:	d902      	bls.n	8000f3a <__udivmoddi4+0x272>
 8000f34:	f1b9 0f00 	cmp.w	r9, #0
 8000f38:	d031      	beq.n	8000f9e <__udivmoddi4+0x2d6>
 8000f3a:	4640      	mov	r0, r8
 8000f3c:	1b92      	subs	r2, r2, r6
 8000f3e:	b289      	uxth	r1, r1
 8000f40:	fbb2 f6fe 	udiv	r6, r2, lr
 8000f44:	fb0e 2216 	mls	r2, lr, r6, r2
 8000f48:	ea41 4102 	orr.w	r1, r1, r2, lsl #16
 8000f4c:	fb06 f207 	mul.w	r2, r6, r7
 8000f50:	428a      	cmp	r2, r1
 8000f52:	d907      	bls.n	8000f64 <__udivmoddi4+0x29c>
 8000f54:	eb1c 0101 	adds.w	r1, ip, r1
 8000f58:	f106 38ff 	add.w	r8, r6, #4294967295	; 0xffffffff
 8000f5c:	d201      	bcs.n	8000f62 <__udivmoddi4+0x29a>
 8000f5e:	428a      	cmp	r2, r1
 8000f60:	d823      	bhi.n	8000faa <__udivmoddi4+0x2e2>
 8000f62:	4646      	mov	r6, r8
 8000f64:	1a89      	subs	r1, r1, r2
 8000f66:	ea46 4600 	orr.w	r6, r6, r0, lsl #16
 8000f6a:	e725      	b.n	8000db8 <__udivmoddi4+0xf0>
 8000f6c:	462e      	mov	r6, r5
 8000f6e:	4628      	mov	r0, r5
 8000f70:	e6f7      	b.n	8000d62 <__udivmoddi4+0x9a>
 8000f72:	1a84      	subs	r4, r0, r2
 8000f74:	eb61 0303 	sbc.w	r3, r1, r3
 8000f78:	2001      	movs	r0, #1
 8000f7a:	461f      	mov	r7, r3
 8000f7c:	e70b      	b.n	8000d96 <__udivmoddi4+0xce>
 8000f7e:	4464      	add	r4, ip
 8000f80:	3802      	subs	r0, #2
 8000f82:	e749      	b.n	8000e18 <__udivmoddi4+0x150>
 8000f84:	4464      	add	r4, ip
 8000f86:	3802      	subs	r0, #2
 8000f88:	e6e1      	b.n	8000d4e <__udivmoddi4+0x86>
 8000f8a:	3a02      	subs	r2, #2
 8000f8c:	4461      	add	r1, ip
 8000f8e:	e72e      	b.n	8000dee <__udivmoddi4+0x126>
 8000f90:	3e02      	subs	r6, #2
 8000f92:	4462      	add	r2, ip
 8000f94:	e6c6      	b.n	8000d24 <__udivmoddi4+0x5c>
 8000f96:	f1a8 0802 	sub.w	r8, r8, #2
 8000f9a:	4461      	add	r1, ip
 8000f9c:	e76f      	b.n	8000e7e <__udivmoddi4+0x1b6>
 8000f9e:	3802      	subs	r0, #2
 8000fa0:	4462      	add	r2, ip
 8000fa2:	e7cb      	b.n	8000f3c <__udivmoddi4+0x274>
 8000fa4:	3802      	subs	r0, #2
 8000fa6:	4461      	add	r1, ip
 8000fa8:	e77d      	b.n	8000ea6 <__udivmoddi4+0x1de>
 8000faa:	3e02      	subs	r6, #2
 8000fac:	4461      	add	r1, ip
 8000fae:	e7d9      	b.n	8000f64 <__udivmoddi4+0x29c>
 8000fb0:	462e      	mov	r6, r5
 8000fb2:	e6d6      	b.n	8000d62 <__udivmoddi4+0x9a>

08000fb4 <__aeabi_idiv0>:
 8000fb4:	4770      	bx	lr
 8000fb6:	bf00      	nop

08000fb8 <__aeabi_d2uiz>:
 8000fb8:	004a      	lsls	r2, r1, #1
 8000fba:	d211      	bcs.n	8000fe0 <__aeabi_d2uiz+0x28>
 8000fbc:	f512 1200 	adds.w	r2, r2, #2097152	; 0x200000
 8000fc0:	d211      	bcs.n	8000fe6 <__aeabi_d2uiz+0x2e>
 8000fc2:	d50d      	bpl.n	8000fe0 <__aeabi_d2uiz+0x28>
 8000fc4:	f46f 7378 	mvn.w	r3, #992	; 0x3e0
 8000fc8:	ebb3 5262 	subs.w	r2, r3, r2, asr #21
 8000fcc:	d40e      	bmi.n	8000fec <__aeabi_d2uiz+0x34>
 8000fce:	ea4f 23c1 	mov.w	r3, r1, lsl #11
 8000fd2:	f043 4300 	orr.w	r3, r3, #2147483648	; 0x80000000
 8000fd6:	ea43 5350 	orr.w	r3, r3, r0, lsr #21
 8000fda:	fa23 f002 	lsr.w	r0, r3, r2
 8000fde:	4770      	bx	lr
 8000fe0:	f04f 0000 	mov.w	r0, #0
 8000fe4:	4770      	bx	lr
 8000fe6:	ea50 3001 	orrs.w	r0, r0, r1, lsl #12
 8000fea:	d102      	bne.n	8000ff2 <__aeabi_d2uiz+0x3a>
 8000fec:	f04f 30ff 	mov.w	r0, #4294967295	; 0xffffffff
 8000ff0:	4770      	bx	lr
 8000ff2:	f04f 0000 	mov.w	r0, #0
 8000ff6:	4770      	bx	lr

08000ff8 <memcpy>:
 8000ff8:	4684      	mov	ip, r0
 8000ffa:	ea41 0300 	orr.w	r3, r1, r0
 8000ffe:	f013 0303 	ands.w	r3, r3, #3
 8001002:	d149      	bne.n	8001098 <memcpy+0xa0>
 8001004:	3a40      	subs	r2, #64	; 0x40
 8001006:	d323      	bcc.n	8001050 <memcpy+0x58>
 8001008:	680b      	ldr	r3, [r1, #0]
 800100a:	6003      	str	r3, [r0, #0]
 800100c:	684b      	ldr	r3, [r1, #4]
 800100e:	6043      	str	r3, [r0, #4]
 8001010:	688b      	ldr	r3, [r1, #8]
 8001012:	6083      	str	r3, [r0, #8]
 8001014:	68cb      	ldr	r3, [r1, #12]
 8001016:	60c3      	str	r3, [r0, #12]
 8001018:	690b      	ldr	r3, [r1, #16]
 800101a:	6103      	str	r3, [r0, #16]
 800101c:	694b      	ldr	r3, [r1, #20]
 800101e:	6143      	str	r3, [r0, #20]
 8001020:	698b      	ldr	r3, [r1, #24]
 8001022:	6183      	str	r3, [r0, #24]
 8001024:	69cb      	ldr	r3, [r1, #28]
 8001026:	61c3      	str	r3, [r0, #28]
 8001028:	6a0b      	ldr	r3, [r1, #32]
 800102a:	6203      	str	r3, [r0, #32]
 800102c:	6a4b      	ldr	r3, [r1, #36]	; 0x24
 800102e:	6243      	str	r3, [r0, #36]	; 0x24
 8001030:	6a8b      	ldr	r3, [r1, #40]	; 0x28
 8001032:	6283      	str	r3, [r0, #40]	; 0x28
 8001034:	6acb      	ldr	r3, [r1, #44]	; 0x2c
 8001036:	62c3      	str	r3, [r0, #44]	; 0x2c
 8001038:	6b0b      	ldr	r3, [r1, #48]	; 0x30
 800103a:	6303      	str	r3, [r0, #48]	; 0x30
 800103c:	6b4b      	ldr	r3, [r1, #52]	; 0x34
 800103e:	6343      	str	r3, [r0, #52]	; 0x34
 8001040:	6b8b      	ldr	r3, [r1, #56]	; 0x38
 8001042:	6383      	str	r3, [r0, #56]	; 0x38
 8001044:	6bcb      	ldr	r3, [r1, #60]	; 0x3c
 8001046:	63c3      	str	r3, [r0, #60]	; 0x3c
 8001048:	3040      	adds	r0, #64	; 0x40
 800104a:	3140      	adds	r1, #64	; 0x40
 800104c:	3a40      	subs	r2, #64	; 0x40
 800104e:	d2db      	bcs.n	8001008 <memcpy+0x10>
 8001050:	3230      	adds	r2, #48	; 0x30
 8001052:	d30b      	bcc.n	800106c <memcpy+0x74>
 8001054:	680b      	ldr	r3, [r1, #0]
 8001056:	6003      	str	r3, [r0, #0]
 8001058:	684b      	ldr	r3, [r1, #4]
 800105a:	6043      	str	r3, [r0, #4]
 800105c:	688b      	ldr	r3, [r1, #8]
 800105e:	6083      	str	r3, [r0, #8]
 8001060:	68cb      	ldr	r3, [r1, #12]
 8001062:	60c3      	str	r3, [r0, #12]
 8001064:	3010      	adds	r0, #16
 8001066:	3110      	adds	r1, #16
 8001068:	3a10      	subs	r2, #16
 800106a:	d2f3      	bcs.n	8001054 <memcpy+0x5c>
 800106c:	320c      	adds	r2, #12
 800106e:	d305      	bcc.n	800107c <memcpy+0x84>
 8001070:	f851 3b04 	ldr.w	r3, [r1], #4
 8001074:	f840 3b04 	str.w	r3, [r0], #4
 8001078:	3a04      	subs	r2, #4
 800107a:	d2f9      	bcs.n	8001070 <memcpy+0x78>
 800107c:	3204      	adds	r2, #4
 800107e:	d008      	beq.n	8001092 <memcpy+0x9a>
 8001080:	07d2      	lsls	r2, r2, #31
 8001082:	bf1c      	itt	ne
 8001084:	f811 3b01 	ldrbne.w	r3, [r1], #1
 8001088:	f800 3b01 	strbne.w	r3, [r0], #1
 800108c:	d301      	bcc.n	8001092 <memcpy+0x9a>
 800108e:	880b      	ldrh	r3, [r1, #0]
 8001090:	8003      	strh	r3, [r0, #0]
 8001092:	4660      	mov	r0, ip
 8001094:	4770      	bx	lr
 8001096:	bf00      	nop
 8001098:	2a08      	cmp	r2, #8
 800109a:	d313      	bcc.n	80010c4 <memcpy+0xcc>
 800109c:	078b      	lsls	r3, r1, #30
 800109e:	d0b1      	beq.n	8001004 <memcpy+0xc>
 80010a0:	f010 0303 	ands.w	r3, r0, #3
 80010a4:	d0ae      	beq.n	8001004 <memcpy+0xc>
 80010a6:	f1c3 0304 	rsb	r3, r3, #4
 80010aa:	1ad2      	subs	r2, r2, r3
 80010ac:	07db      	lsls	r3, r3, #31
 80010ae:	bf1c      	itt	ne
 80010b0:	f811 3b01 	ldrbne.w	r3, [r1], #1
 80010b4:	f800 3b01 	strbne.w	r3, [r0], #1
 80010b8:	d3a4      	bcc.n	8001004 <memcpy+0xc>
 80010ba:	f831 3b02 	ldrh.w	r3, [r1], #2
 80010be:	f820 3b02 	strh.w	r3, [r0], #2
 80010c2:	e79f      	b.n	8001004 <memcpy+0xc>
 80010c4:	3a04      	subs	r2, #4
 80010c6:	d3d9      	bcc.n	800107c <memcpy+0x84>
 80010c8:	3a01      	subs	r2, #1
 80010ca:	f811 3b01 	ldrb.w	r3, [r1], #1
 80010ce:	f800 3b01 	strb.w	r3, [r0], #1
 80010d2:	d2f9      	bcs.n	80010c8 <memcpy+0xd0>
 80010d4:	780b      	ldrb	r3, [r1, #0]
 80010d6:	7003      	strb	r3, [r0, #0]
 80010d8:	784b      	ldrb	r3, [r1, #1]
 80010da:	7043      	strb	r3, [r0, #1]
 80010dc:	788b      	ldrb	r3, [r1, #2]
 80010de:	7083      	strb	r3, [r0, #2]
 80010e0:	4660      	mov	r0, ip
 80010e2:	4770      	bx	lr

080010e4 <SPILCDTask>:

	}
}

void SPILCDTask(void *argument)
{
 80010e4:	b538      	push	{r3, r4, r5, lr}
	unsigned int cnt = 0;

	bsp_test_lcd();
 80010e6:	f000 f929 	bl	800133c <bsp_test_lcd>
	unsigned int cnt = 0;
 80010ea:	2400      	movs	r4, #0

	while(1)
	{
		rt_kprintf("SPILCDTask run:%d \r\n",cnt++);
 80010ec:	4d05      	ldr	r5, [pc, #20]	; (8001104 <SPILCDTask+0x20>)
 80010ee:	4621      	mov	r1, r4
 80010f0:	4628      	mov	r0, r5
 80010f2:	f000 ffbb 	bl	800206c <rt_kprintf>
		vTaskDelay(500);
 80010f6:	f44f 70fa 	mov.w	r0, #500	; 0x1f4
		rt_kprintf("SPILCDTask run:%d \r\n",cnt++);
 80010fa:	3401      	adds	r4, #1
		vTaskDelay(500);
 80010fc:	f00a f9a2 	bl	800b444 <vTaskDelay>
	while(1)
 8001100:	e7f5      	b.n	80010ee <SPILCDTask+0xa>
 8001102:	bf00      	nop
 8001104:	0800c608 	.word	0x0800c608

08001108 <StartDefaultTask>:
{
 8001108:	b538      	push	{r3, r4, r5, lr}
	unsigned int cnt = 0;
 800110a:	2400      	movs	r4, #0
		rt_kprintf("StartDefaultTask run:%d \r\n",cnt++);
 800110c:	4d06      	ldr	r5, [pc, #24]	; (8001128 <StartDefaultTask+0x20>)
 800110e:	4621      	mov	r1, r4
 8001110:	4628      	mov	r0, r5
 8001112:	f000 ffab 	bl	800206c <rt_kprintf>
		bsp_led_toggle();
 8001116:	f000 f993 	bl	8001440 <bsp_led_toggle>
		HAL_Delay(500);
 800111a:	f44f 70fa 	mov.w	r0, #500	; 0x1f4
		rt_kprintf("StartDefaultTask run:%d \r\n",cnt++);
 800111e:	3401      	adds	r4, #1
		HAL_Delay(500);
 8001120:	f003 f970 	bl	8004404 <HAL_Delay>
	while(1)
 8001124:	e7f3      	b.n	800110e <StartDefaultTask+0x6>
 8001126:	bf00      	nop
 8001128:	0800c620 	.word	0x0800c620

0800112c <vApplicationStackOverflowHook>:
    while(1);
 800112c:	e7fe      	b.n	800112c <vApplicationStackOverflowHook>
 800112e:	bf00      	nop

08001130 <MX_FREERTOS_Init>:
void MX_FREERTOS_Init(void) {
 8001130:	b530      	push	{r4, r5, lr}
	xTaskCreate(
 8001132:	2400      	movs	r4, #0
 8001134:	2509      	movs	r5, #9
void MX_FREERTOS_Init(void) {
 8001136:	b083      	sub	sp, #12
	xTaskCreate(
 8001138:	4623      	mov	r3, r4
 800113a:	f44f 72c8 	mov.w	r2, #400	; 0x190
 800113e:	e9cd 5400 	strd	r5, r4, [sp]
 8001142:	4907      	ldr	r1, [pc, #28]	; (8001160 <MX_FREERTOS_Init+0x30>)
 8001144:	4807      	ldr	r0, [pc, #28]	; (8001164 <MX_FREERTOS_Init+0x34>)
 8001146:	f00a f947 	bl	800b3d8 <xTaskCreate>
	xTaskCreate(
 800114a:	4623      	mov	r3, r4
 800114c:	f44f 72c8 	mov.w	r2, #400	; 0x190
 8001150:	e9cd 5400 	strd	r5, r4, [sp]
 8001154:	4904      	ldr	r1, [pc, #16]	; (8001168 <MX_FREERTOS_Init+0x38>)
 8001156:	4805      	ldr	r0, [pc, #20]	; (800116c <MX_FREERTOS_Init+0x3c>)
 8001158:	f00a f93e 	bl	800b3d8 <xTaskCreate>
}
 800115c:	b003      	add	sp, #12
 800115e:	bd30      	pop	{r4, r5, pc}
 8001160:	0800c63c 	.word	0x0800c63c
 8001164:	08001109 	.word	0x08001109
 8001168:	0800c650 	.word	0x0800c650
 800116c:	080010e5 	.word	0x080010e5

08001170 <MX_SPI2_Init>:
#include "draw.h"

SPI_HandleTypeDef hspi2;

void MX_SPI2_Init(void)
{
 8001170:	b538      	push	{r3, r4, r5, lr}
  hspi2.Init.Mode = SPI_MODE_MASTER;
  hspi2.Init.Direction = SPI_DIRECTION_2LINES;
  hspi2.Init.DataSize = SPI_DATASIZE_8BIT;
  hspi2.Init.CLKPolarity = SPI_POLARITY_LOW;
  hspi2.Init.CLKPhase = SPI_PHASE_1EDGE;
  hspi2.Init.NSS = SPI_NSS_SOFT;
 8001172:	f04f 6180 	mov.w	r1, #67108864	; 0x4000000
  hspi2.Init.Direction = SPI_DIRECTION_2LINES;
 8001176:	2300      	movs	r3, #0
  hspi2.Instance = SPI2;
 8001178:	4813      	ldr	r0, [pc, #76]	; (80011c8 <MX_SPI2_Init+0x58>)
  hspi2.Init.DataSize = SPI_DATASIZE_8BIT;
 800117a:	2207      	movs	r2, #7
  hspi2.Init.Mode = SPI_MODE_MASTER;
 800117c:	f44f 0580 	mov.w	r5, #4194304	; 0x400000
  hspi2.Init.BaudRatePrescaler = SPI_BAUDRATEPRESCALER_4;
 8001180:	f04f 5480 	mov.w	r4, #268435456	; 0x10000000
  hspi2.Init.NSS = SPI_NSS_SOFT;
 8001184:	e9c0 3105 	strd	r3, r1, [r0, #20]
  hspi2.Init.FirstBit = SPI_FIRSTBIT_MSB;
  hspi2.Init.TIMode = SPI_TIMODE_DISABLE;
  hspi2.Init.CRCCalculation = SPI_CRCCALCULATION_DISABLE;
  hspi2.Init.CRCPolynomial = 0x7;
  hspi2.Init.NSSPMode = SPI_NSS_PULSE_ENABLE;
 8001188:	f04f 4180 	mov.w	r1, #1073741824	; 0x40000000
  hspi2.Init.Direction = SPI_DIRECTION_2LINES;
 800118c:	e9c0 5301 	strd	r5, r3, [r0, #4]
  hspi2.Init.CLKPolarity = SPI_POLARITY_LOW;
 8001190:	e9c0 2303 	strd	r2, r3, [r0, #12]
  hspi2.Init.FirstBit = SPI_FIRSTBIT_MSB;
 8001194:	e9c0 4307 	strd	r4, r3, [r0, #28]
  hspi2.Init.CRCCalculation = SPI_CRCCALCULATION_DISABLE;
 8001198:	e9c0 3309 	strd	r3, r3, [r0, #36]	; 0x24
  hspi2.Init.NSSPolarity = SPI_NSS_POLARITY_LOW;
  hspi2.Init.FifoThreshold = SPI_FIFO_THRESHOLD_01DATA;
 800119c:	e9c0 330e 	strd	r3, r3, [r0, #56]	; 0x38
  hspi2.Init.MasterSSIdleness = SPI_MASTER_SS_IDLENESS_00CYCLE;
  hspi2.Init.MasterInterDataIdleness = SPI_MASTER_INTERDATA_IDLENESS_00CYCLE;
 80011a0:	e9c0 3312 	strd	r3, r3, [r0, #72]	; 0x48
  hspi2.Init.MasterReceiverAutoSusp = SPI_MASTER_RX_AUTOSUSP_DISABLE;
  hspi2.Init.MasterKeepIOState = SPI_MASTER_KEEP_IO_STATE_DISABLE;
 80011a4:	e9c0 3314 	strd	r3, r3, [r0, #80]	; 0x50
  hspi2.Init.IOSwap = SPI_IO_SWAP_DISABLE;
  hspi2.Init.ReadyMasterManagement = SPI_RDY_MASTER_MANAGEMENT_INTERNALLY;
 80011a8:	e9c0 3316 	strd	r3, r3, [r0, #88]	; 0x58
  hspi2.Init.ReadyPolarity = SPI_RDY_POLARITY_HIGH;
 80011ac:	6603      	str	r3, [r0, #96]	; 0x60
  hspi2.Instance = SPI2;
 80011ae:	4b07      	ldr	r3, [pc, #28]	; (80011cc <MX_SPI2_Init+0x5c>)
  hspi2.Init.CRCPolynomial = 0x7;
 80011b0:	62c2      	str	r2, [r0, #44]	; 0x2c
  hspi2.Init.NSSPMode = SPI_NSS_PULSE_ENABLE;
 80011b2:	6341      	str	r1, [r0, #52]	; 0x34
  hspi2.Instance = SPI2;
 80011b4:	6003      	str	r3, [r0, #0]
  if (HAL_SPI_Init(&hspi2) != HAL_OK)
 80011b6:	f008 f9eb 	bl	8009590 <HAL_SPI_Init>
 80011ba:	b900      	cbnz	r0, 80011be <MX_SPI2_Init+0x4e>
  {
    Error_Handler();
  }
}
 80011bc:	bd38      	pop	{r3, r4, r5, pc}
 80011be:	e8bd 4038 	ldmia.w	sp!, {r3, r4, r5, lr}
    Error_Handler();
 80011c2:	f001 b855 	b.w	8002270 <Error_Handler>
 80011c6:	bf00      	nop
 80011c8:	20000870 	.word	0x20000870
 80011cc:	40003800 	.word	0x40003800

080011d0 <HAL_SPI_MspInit>:

void HAL_SPI_MspInit(SPI_HandleTypeDef* spiHandle)
{
 80011d0:	b5f0      	push	{r4, r5, r6, r7, lr}

  GPIO_InitTypeDef GPIO_InitStruct = {0};
 80011d2:	2100      	movs	r1, #0
{
 80011d4:	4604      	mov	r4, r0
 80011d6:	b0cb      	sub	sp, #300	; 0x12c
  RCC_PeriphCLKInitTypeDef PeriphClkInitStruct = {0};
 80011d8:	f44f 7284 	mov.w	r2, #264	; 0x108
 80011dc:	a808      	add	r0, sp, #32
  GPIO_InitTypeDef GPIO_InitStruct = {0};
 80011de:	e9cd 1103 	strd	r1, r1, [sp, #12]
 80011e2:	e9cd 1105 	strd	r1, r1, [sp, #20]
 80011e6:	9107      	str	r1, [sp, #28]
  RCC_PeriphCLKInitTypeDef PeriphClkInitStruct = {0};
 80011e8:	f00a ff8a 	bl	800c100 <memset>
  if(spiHandle->Instance==SPI2)
 80011ec:	4b28      	ldr	r3, [pc, #160]	; (8001290 <HAL_SPI_MspInit+0xc0>)
 80011ee:	6822      	ldr	r2, [r4, #0]
 80011f0:	429a      	cmp	r2, r3
 80011f2:	d001      	beq.n	80011f8 <HAL_SPI_MspInit+0x28>

  /* USER CODE BEGIN SPI2_MspInit 1 */

  /* USER CODE END SPI2_MspInit 1 */
  }
}
 80011f4:	b04b      	add	sp, #300	; 0x12c
 80011f6:	bdf0      	pop	{r4, r5, r6, r7, pc}
    PeriphClkInitStruct.PeriphClockSelection = RCC_PERIPHCLK_SPI2;
 80011f8:	f04f 5280 	mov.w	r2, #268435456	; 0x10000000
 80011fc:	2300      	movs	r3, #0
    if (HAL_RCCEx_PeriphCLKConfig(&PeriphClkInitStruct) != HAL_OK)
 80011fe:	a808      	add	r0, sp, #32
    PeriphClkInitStruct.PeriphClockSelection = RCC_PERIPHCLK_SPI2;
 8001200:	e9cd 2308 	strd	r2, r3, [sp, #32]
    if (HAL_RCCEx_PeriphCLKConfig(&PeriphClkInitStruct) != HAL_OK)
 8001204:	f004 fc60 	bl	8005ac8 <HAL_RCCEx_PeriphCLKConfig>
 8001208:	2800      	cmp	r0, #0
 800120a:	d13d      	bne.n	8001288 <HAL_SPI_MspInit+0xb8>
    GPIO_InitStruct.Mode = GPIO_MODE_AF_PP;
 800120c:	2702      	movs	r7, #2
    GPIO_InitStruct.Pin = GPIO_PIN_1|GPIO_PIN_2;
 800120e:	2106      	movs	r1, #6
    GPIO_InitStruct.Pull = GPIO_NOPULL;
 8001210:	2600      	movs	r6, #0
    GPIO_InitStruct.Speed = GPIO_SPEED_FREQ_VERY_HIGH;
 8001212:	2503      	movs	r5, #3
    GPIO_InitStruct.Alternate = GPIO_AF5_SPI2;
 8001214:	2405      	movs	r4, #5
    __HAL_RCC_SPI2_CLK_ENABLE();
 8001216:	4b1f      	ldr	r3, [pc, #124]	; (8001294 <HAL_SPI_MspInit+0xc4>)
    HAL_GPIO_Init(GPIOC, &GPIO_InitStruct);
 8001218:	481f      	ldr	r0, [pc, #124]	; (8001298 <HAL_SPI_MspInit+0xc8>)
    __HAL_RCC_SPI2_CLK_ENABLE();
 800121a:	f8d3 209c 	ldr.w	r2, [r3, #156]	; 0x9c
 800121e:	f442 4280 	orr.w	r2, r2, #16384	; 0x4000
 8001222:	f8c3 209c 	str.w	r2, [r3, #156]	; 0x9c
 8001226:	f8d3 209c 	ldr.w	r2, [r3, #156]	; 0x9c
 800122a:	f402 4280 	and.w	r2, r2, #16384	; 0x4000
 800122e:	9200      	str	r2, [sp, #0]
 8001230:	9a00      	ldr	r2, [sp, #0]
    __HAL_RCC_GPIOC_CLK_ENABLE();
 8001232:	f8d3 208c 	ldr.w	r2, [r3, #140]	; 0x8c
 8001236:	f042 0204 	orr.w	r2, r2, #4
 800123a:	f8c3 208c 	str.w	r2, [r3, #140]	; 0x8c
 800123e:	f8d3 208c 	ldr.w	r2, [r3, #140]	; 0x8c
 8001242:	f002 0204 	and.w	r2, r2, #4
 8001246:	9201      	str	r2, [sp, #4]
 8001248:	9a01      	ldr	r2, [sp, #4]
    __HAL_RCC_GPIOB_CLK_ENABLE();
 800124a:	f8d3 208c 	ldr.w	r2, [r3, #140]	; 0x8c
 800124e:	433a      	orrs	r2, r7
 8001250:	f8c3 208c 	str.w	r2, [r3, #140]	; 0x8c
 8001254:	f8d3 308c 	ldr.w	r3, [r3, #140]	; 0x8c
    GPIO_InitStruct.Pin = GPIO_PIN_1|GPIO_PIN_2;
 8001258:	9103      	str	r1, [sp, #12]
    __HAL_RCC_GPIOB_CLK_ENABLE();
 800125a:	403b      	ands	r3, r7
 800125c:	9302      	str	r3, [sp, #8]
    HAL_GPIO_Init(GPIOC, &GPIO_InitStruct);
 800125e:	a903      	add	r1, sp, #12
    __HAL_RCC_GPIOB_CLK_ENABLE();
 8001260:	9b02      	ldr	r3, [sp, #8]
    GPIO_InitStruct.Pull = GPIO_NOPULL;
 8001262:	e9cd 7604 	strd	r7, r6, [sp, #16]
    GPIO_InitStruct.Speed = GPIO_SPEED_FREQ_VERY_HIGH;
 8001266:	9506      	str	r5, [sp, #24]
    GPIO_InitStruct.Alternate = GPIO_AF5_SPI2;
 8001268:	9407      	str	r4, [sp, #28]
    HAL_GPIO_Init(GPIOC, &GPIO_InitStruct);
 800126a:	f003 fcd1 	bl	8004c10 <HAL_GPIO_Init>
    GPIO_InitStruct.Pin = GPIO_PIN_10;
 800126e:	f44f 6380 	mov.w	r3, #1024	; 0x400
    HAL_GPIO_Init(GPIOB, &GPIO_InitStruct);
 8001272:	480a      	ldr	r0, [pc, #40]	; (800129c <HAL_SPI_MspInit+0xcc>)
 8001274:	a903      	add	r1, sp, #12
    GPIO_InitStruct.Speed = GPIO_SPEED_FREQ_VERY_HIGH;
 8001276:	e9cd 6505 	strd	r6, r5, [sp, #20]
    GPIO_InitStruct.Mode = GPIO_MODE_AF_PP;
 800127a:	9704      	str	r7, [sp, #16]
    GPIO_InitStruct.Alternate = GPIO_AF5_SPI2;
 800127c:	9407      	str	r4, [sp, #28]
    GPIO_InitStruct.Pin = GPIO_PIN_10;
 800127e:	9303      	str	r3, [sp, #12]
    HAL_GPIO_Init(GPIOB, &GPIO_InitStruct);
 8001280:	f003 fcc6 	bl	8004c10 <HAL_GPIO_Init>
}
 8001284:	b04b      	add	sp, #300	; 0x12c
 8001286:	bdf0      	pop	{r4, r5, r6, r7, pc}
      Error_Handler();
 8001288:	f000 fff2 	bl	8002270 <Error_Handler>
 800128c:	e7be      	b.n	800120c <HAL_SPI_MspInit+0x3c>
 800128e:	bf00      	nop
 8001290:	40003800 	.word	0x40003800
 8001294:	44020c00 	.word	0x44020c00
 8001298:	42020800 	.word	0x42020800
 800129c:	42020400 	.word	0x42020400

080012a0 <bsp_lcd_init>:
  }
}


void bsp_lcd_init(void)
{
 80012a0:	b5f0      	push	{r4, r5, r6, r7, lr}
	GPIO_InitTypeDef GPIO_InitStruct = {0};
 80012a2:	2400      	movs	r4, #0
{
 80012a4:	b089      	sub	sp, #36	; 0x24
	GPIO_InitTypeDef GPIO_InitStruct = {0};
 80012a6:	e9cd 4403 	strd	r4, r4, [sp, #12]
 80012aa:	e9cd 4405 	strd	r4, r4, [sp, #20]

	__HAL_RCC_GPIOB_CLK_ENABLE();
 80012ae:	4b20      	ldr	r3, [pc, #128]	; (8001330 <bsp_lcd_init+0x90>)
	GPIO_InitTypeDef GPIO_InitStruct = {0};
 80012b0:	9407      	str	r4, [sp, #28]
	__HAL_RCC_GPIOB_CLK_ENABLE();
 80012b2:	f8d3 208c 	ldr.w	r2, [r3, #140]	; 0x8c
  __HAL_RCC_GPIOD_CLK_ENABLE();
	
  /*Configure GPIO pin Output Level */
  HAL_GPIO_WritePin(GPIOB, GPIO_PIN_11|GPIO_PIN_4, GPIO_PIN_RESET);
 80012b6:	4f1f      	ldr	r7, [pc, #124]	; (8001334 <bsp_lcd_init+0x94>)
	__HAL_RCC_GPIOB_CLK_ENABLE();
 80012b8:	f042 0202 	orr.w	r2, r2, #2
 80012bc:	f8c3 208c 	str.w	r2, [r3, #140]	; 0x8c
 80012c0:	f8d3 208c 	ldr.w	r2, [r3, #140]	; 0x8c

  /*Configure GPIO pin Output Level */
  HAL_GPIO_WritePin(GPIOD, GPIO_PIN_11|GPIO_PIN_12, GPIO_PIN_RESET);
 80012c4:	4e1c      	ldr	r6, [pc, #112]	; (8001338 <bsp_lcd_init+0x98>)
	__HAL_RCC_GPIOB_CLK_ENABLE();
 80012c6:	f002 0202 	and.w	r2, r2, #2
 80012ca:	9201      	str	r2, [sp, #4]
 80012cc:	9a01      	ldr	r2, [sp, #4]
  __HAL_RCC_GPIOD_CLK_ENABLE();
 80012ce:	f8d3 208c 	ldr.w	r2, [r3, #140]	; 0x8c
  HAL_GPIO_WritePin(GPIOB, GPIO_PIN_11|GPIO_PIN_4, GPIO_PIN_RESET);
 80012d2:	4638      	mov	r0, r7
  __HAL_RCC_GPIOD_CLK_ENABLE();
 80012d4:	f042 0208 	orr.w	r2, r2, #8
 80012d8:	f8c3 208c 	str.w	r2, [r3, #140]	; 0x8c
 80012dc:	f8d3 308c 	ldr.w	r3, [r3, #140]	; 0x8c
  HAL_GPIO_WritePin(GPIOB, GPIO_PIN_11|GPIO_PIN_4, GPIO_PIN_RESET);
 80012e0:	4622      	mov	r2, r4
  __HAL_RCC_GPIOD_CLK_ENABLE();
 80012e2:	f003 0308 	and.w	r3, r3, #8
 80012e6:	9302      	str	r3, [sp, #8]
  HAL_GPIO_WritePin(GPIOB, GPIO_PIN_11|GPIO_PIN_4, GPIO_PIN_RESET);
 80012e8:	f44f 6101 	mov.w	r1, #2064	; 0x810
  __HAL_RCC_GPIOD_CLK_ENABLE();
 80012ec:	9b02      	ldr	r3, [sp, #8]
  HAL_GPIO_WritePin(GPIOB, GPIO_PIN_11|GPIO_PIN_4, GPIO_PIN_RESET);
 80012ee:	f003 fd65 	bl	8004dbc <HAL_GPIO_WritePin>
  HAL_GPIO_WritePin(GPIOD, GPIO_PIN_11|GPIO_PIN_12, GPIO_PIN_RESET);
 80012f2:	4622      	mov	r2, r4
 80012f4:	4630      	mov	r0, r6
 80012f6:	f44f 51c0 	mov.w	r1, #6144	; 0x1800
 80012fa:	f003 fd5f 	bl	8004dbc <HAL_GPIO_WritePin>
	
	/*Configure GPIO pins : PB11 PB4 */
  GPIO_InitStruct.Pin = GPIO_PIN_11|GPIO_PIN_4;
  GPIO_InitStruct.Mode = GPIO_MODE_OUTPUT_PP;
 80012fe:	2501      	movs	r5, #1
  GPIO_InitStruct.Pin = GPIO_PIN_11|GPIO_PIN_4;
 8001300:	f44f 6301 	mov.w	r3, #2064	; 0x810
  GPIO_InitStruct.Pull = GPIO_NOPULL;
  GPIO_InitStruct.Speed = GPIO_SPEED_FREQ_LOW;
  HAL_GPIO_Init(GPIOB, &GPIO_InitStruct);
 8001304:	4638      	mov	r0, r7
 8001306:	a903      	add	r1, sp, #12
  GPIO_InitStruct.Pin = GPIO_PIN_11|GPIO_PIN_4;
 8001308:	9303      	str	r3, [sp, #12]
  GPIO_InitStruct.Pull = GPIO_NOPULL;
 800130a:	e9cd 5404 	strd	r5, r4, [sp, #16]
  GPIO_InitStruct.Speed = GPIO_SPEED_FREQ_LOW;
 800130e:	9406      	str	r4, [sp, #24]
  HAL_GPIO_Init(GPIOB, &GPIO_InitStruct);
 8001310:	f003 fc7e 	bl	8004c10 <HAL_GPIO_Init>
	
	/*Configure GPIO pins : PD11 PD12 */
  GPIO_InitStruct.Pin = GPIO_PIN_11|GPIO_PIN_12;
 8001314:	f44f 52c0 	mov.w	r2, #6144	; 0x1800
  GPIO_InitStruct.Mode = GPIO_MODE_OUTPUT_PP;
  GPIO_InitStruct.Pull = GPIO_NOPULL;
  GPIO_InitStruct.Speed = GPIO_SPEED_FREQ_VERY_HIGH;
 8001318:	2303      	movs	r3, #3
  HAL_GPIO_Init(GPIOD, &GPIO_InitStruct);	
 800131a:	4630      	mov	r0, r6
 800131c:	a903      	add	r1, sp, #12
  GPIO_InitStruct.Mode = GPIO_MODE_OUTPUT_PP;
 800131e:	9504      	str	r5, [sp, #16]
  GPIO_InitStruct.Pull = GPIO_NOPULL;
 8001320:	9405      	str	r4, [sp, #20]
  GPIO_InitStruct.Pin = GPIO_PIN_11|GPIO_PIN_12;
 8001322:	9203      	str	r2, [sp, #12]
  GPIO_InitStruct.Speed = GPIO_SPEED_FREQ_VERY_HIGH;
 8001324:	9306      	str	r3, [sp, #24]
  HAL_GPIO_Init(GPIOD, &GPIO_InitStruct);	
 8001326:	f003 fc73 	bl	8004c10 <HAL_GPIO_Init>
  
  
}
 800132a:	b009      	add	sp, #36	; 0x24
 800132c:	bdf0      	pop	{r4, r5, r6, r7, pc}
 800132e:	bf00      	nop
 8001330:	44020c00 	.word	0x44020c00
 8001334:	42020400 	.word	0x42020400
 8001338:	42020c00 	.word	0x42020c00

0800133c <bsp_test_lcd>:

void bsp_test_lcd(void)
{
 800133c:	b530      	push	{r4, r5, lr}

#if 1

	Draw_String(0, 0, "www.100ask.net\r\n10ask.taobao.com", 0x0000ff00, 0); /*  */
 800133e:	2400      	movs	r4, #0
	extern const unsigned char gImage_100ask[36968]; 
	Draw_Picture(0, 100, gImage_100ask);  /*  */

	Draw_Circle(60, 250, 50, 0xffffff); /*  */

	Draw_Rectangle(180, 200, 280, 300, 0xffffff); /*  */
 8001340:	f06f 457f 	mvn.w	r5, #4278190080	; 0xff000000
{
 8001344:	b083      	sub	sp, #12
	Draw_String(0, 0, "www.100ask.net\r\n10ask.taobao.com", 0x0000ff00, 0); /*  */
 8001346:	4621      	mov	r1, r4
 8001348:	f44f 437f 	mov.w	r3, #65280	; 0xff00
 800134c:	4620      	mov	r0, r4
 800134e:	4a1c      	ldr	r2, [pc, #112]	; (80013c0 <bsp_test_lcd+0x84>)
 8001350:	9400      	str	r4, [sp, #0]
 8001352:	f000 fb0d 	bl	8001970 <Draw_String>
	Draw_ChineseFont(0, 40, "", 0xff0000, 0); /*  */
 8001356:	f44f 037f 	mov.w	r3, #16711680	; 0xff0000
 800135a:	4620      	mov	r0, r4
 800135c:	2128      	movs	r1, #40	; 0x28
 800135e:	4a19      	ldr	r2, [pc, #100]	; (80013c4 <bsp_test_lcd+0x88>)
 8001360:	9400      	str	r4, [sp, #0]
 8001362:	f000 fc47 	bl	8001bf4 <Draw_ChineseFont>
	Draw_Picture(0, 100, gImage_100ask);  /*  */
 8001366:	4620      	mov	r0, r4
 8001368:	2164      	movs	r1, #100	; 0x64
 800136a:	4a17      	ldr	r2, [pc, #92]	; (80013c8 <bsp_test_lcd+0x8c>)
 800136c:	f000 fd0a 	bl	8001d84 <Draw_Picture>
	Draw_Circle(60, 250, 50, 0xffffff); /*  */
 8001370:	462b      	mov	r3, r5
 8001372:	2232      	movs	r2, #50	; 0x32
 8001374:	21fa      	movs	r1, #250	; 0xfa
 8001376:	203c      	movs	r0, #60	; 0x3c
 8001378:	f000 fbba 	bl	8001af0 <Draw_Circle>
	Draw_Rectangle(180, 200, 280, 300, 0xffffff); /*  */
 800137c:	f44f 7396 	mov.w	r3, #300	; 0x12c
 8001380:	f44f 728c 	mov.w	r2, #280	; 0x118
 8001384:	21c8      	movs	r1, #200	; 0xc8
 8001386:	20b4      	movs	r0, #180	; 0xb4
 8001388:	9500      	str	r5, [sp, #0]
 800138a:	f000 fb8d 	bl	8001aa8 <Draw_Rectangle>
	
	Draw_String(240, 160, "Hello", 0x00ff0000, 0x00ffffff);
 800138e:	f44f 037f 	mov.w	r3, #16711680	; 0xff0000
 8001392:	21a0      	movs	r1, #160	; 0xa0
 8001394:	4a0d      	ldr	r2, [pc, #52]	; (80013cc <bsp_test_lcd+0x90>)
 8001396:	9500      	str	r5, [sp, #0]
 8001398:	20f0      	movs	r0, #240	; 0xf0
 800139a:	f000 fae9 	bl	8001970 <Draw_String>
	
	Draw_ChineseFont(200, 200, "", 0xff0000, 0); /*  */
 800139e:	21c8      	movs	r1, #200	; 0xc8
 80013a0:	f44f 037f 	mov.w	r3, #16711680	; 0xff0000
 80013a4:	4608      	mov	r0, r1
 80013a6:	4a0a      	ldr	r2, [pc, #40]	; (80013d0 <bsp_test_lcd+0x94>)
 80013a8:	9400      	str	r4, [sp, #0]
 80013aa:	f000 fc23 	bl	8001bf4 <Draw_ChineseFont>
	
	extern const unsigned char gImage_ufo[19888];
	Draw_Picture(300, 50, gImage_ufo);  /*  */
 80013ae:	2132      	movs	r1, #50	; 0x32
 80013b0:	f44f 7096 	mov.w	r0, #300	; 0x12c
 80013b4:	4a07      	ldr	r2, [pc, #28]	; (80013d4 <bsp_test_lcd+0x98>)
#endif
}
 80013b6:	b003      	add	sp, #12
 80013b8:	e8bd 4030 	ldmia.w	sp!, {r4, r5, lr}
	Draw_Picture(300, 50, gImage_ufo);  /*  */
 80013bc:	f000 bce2 	b.w	8001d84 <Draw_Picture>
 80013c0:	0800c65c 	.word	0x0800c65c
 80013c4:	0800c680 	.word	0x0800c680
 80013c8:	0800dd70 	.word	0x0800dd70
 80013cc:	0800c69c 	.word	0x0800c69c
 80013d0:	0800c6a4 	.word	0x0800c6a4
 80013d4:	08016dd8 	.word	0x08016dd8

080013d8 <bsp_led_init>:
#include "bsp_led.h"

//PC12
void bsp_led_init()
{
 80013d8:	b570      	push	{r4, r5, r6, lr}
	GPIO_InitTypeDef GPIO_InitStruct = {0};	
 80013da:	2400      	movs	r4, #0
	__HAL_RCC_GPIOH_CLK_ENABLE();	
	__HAL_RCC_GPIOC_CLK_ENABLE();

	
	/*Configure GPIO pin : PC12 */
  GPIO_InitStruct.Pin = GPIO_PIN_12;
 80013dc:	f44f 5580 	mov.w	r5, #4096	; 0x1000
  GPIO_InitStruct.Mode = GPIO_MODE_OUTPUT_PP;
 80013e0:	2601      	movs	r6, #1
{
 80013e2:	b088      	sub	sp, #32
	GPIO_InitTypeDef GPIO_InitStruct = {0};	
 80013e4:	e9cd 4405 	strd	r4, r4, [sp, #20]
	__HAL_RCC_GPIOH_CLK_ENABLE();	
 80013e8:	4b13      	ldr	r3, [pc, #76]	; (8001438 <bsp_led_init+0x60>)
	GPIO_InitTypeDef GPIO_InitStruct = {0};	
 80013ea:	9407      	str	r4, [sp, #28]
	__HAL_RCC_GPIOH_CLK_ENABLE();	
 80013ec:	f8d3 208c 	ldr.w	r2, [r3, #140]	; 0x8c
  GPIO_InitStruct.Pull = GPIO_NOPULL;
  GPIO_InitStruct.Speed = GPIO_SPEED_FREQ_LOW;
  HAL_GPIO_Init(GPIOC, &GPIO_InitStruct);
 80013f0:	a903      	add	r1, sp, #12
	__HAL_RCC_GPIOH_CLK_ENABLE();	
 80013f2:	f042 0280 	orr.w	r2, r2, #128	; 0x80
 80013f6:	f8c3 208c 	str.w	r2, [r3, #140]	; 0x8c
 80013fa:	f8d3 208c 	ldr.w	r2, [r3, #140]	; 0x8c
  HAL_GPIO_Init(GPIOC, &GPIO_InitStruct);
 80013fe:	480f      	ldr	r0, [pc, #60]	; (800143c <bsp_led_init+0x64>)
	__HAL_RCC_GPIOH_CLK_ENABLE();	
 8001400:	f002 0280 	and.w	r2, r2, #128	; 0x80
 8001404:	9201      	str	r2, [sp, #4]
 8001406:	9a01      	ldr	r2, [sp, #4]
	__HAL_RCC_GPIOC_CLK_ENABLE();
 8001408:	f8d3 208c 	ldr.w	r2, [r3, #140]	; 0x8c
 800140c:	f042 0204 	orr.w	r2, r2, #4
 8001410:	f8c3 208c 	str.w	r2, [r3, #140]	; 0x8c
 8001414:	f8d3 308c 	ldr.w	r3, [r3, #140]	; 0x8c
  GPIO_InitStruct.Mode = GPIO_MODE_OUTPUT_PP;
 8001418:	9604      	str	r6, [sp, #16]
	__HAL_RCC_GPIOC_CLK_ENABLE();
 800141a:	f003 0304 	and.w	r3, r3, #4
 800141e:	9302      	str	r3, [sp, #8]
 8001420:	9b02      	ldr	r3, [sp, #8]
  GPIO_InitStruct.Pin = GPIO_PIN_12;
 8001422:	9503      	str	r5, [sp, #12]
  HAL_GPIO_Init(GPIOC, &GPIO_InitStruct);
 8001424:	f003 fbf4 	bl	8004c10 <HAL_GPIO_Init>
	
	/*Configure GPIO pin Output Level */
  HAL_GPIO_WritePin(GPIOC, GPIO_PIN_12, GPIO_PIN_RESET);	
 8001428:	4622      	mov	r2, r4
 800142a:	4629      	mov	r1, r5
 800142c:	4803      	ldr	r0, [pc, #12]	; (800143c <bsp_led_init+0x64>)
 800142e:	f003 fcc5 	bl	8004dbc <HAL_GPIO_WritePin>
}
 8001432:	b008      	add	sp, #32
 8001434:	bd70      	pop	{r4, r5, r6, pc}
 8001436:	bf00      	nop
 8001438:	44020c00 	.word	0x44020c00
 800143c:	42020800 	.word	0x42020800

08001440 <bsp_led_toggle>:
	HAL_GPIO_WritePin(GPIOC, GPIO_PIN_12, GPIO_PIN_SET);
}

void bsp_led_toggle()
{
	HAL_GPIO_TogglePin(GPIOC, GPIO_PIN_12);
 8001440:	f44f 5180 	mov.w	r1, #4096	; 0x1000
 8001444:	4801      	ldr	r0, [pc, #4]	; (800144c <bsp_led_toggle+0xc>)
 8001446:	f003 bcbf 	b.w	8004dc8 <HAL_GPIO_TogglePin>
 800144a:	bf00      	nop
 800144c:	42020800 	.word	0x42020800

08001450 <MX_UART4_Init>:
  /* USER CODE BEGIN UART4_Init 1 */

  /* USER CODE END UART4_Init 1 */
  huart4.Instance = UART4;
  huart4.Init.BaudRate = 115200;
  huart4.Init.WordLength = UART_WORDLENGTH_8B;
 8001450:	2300      	movs	r3, #0
  huart4.Init.BaudRate = 115200;
 8001452:	f44f 31e1 	mov.w	r1, #115200	; 0x1c200
  huart4.Init.StopBits = UART_STOPBITS_1;
  huart4.Init.Parity = UART_PARITY_NONE;
  huart4.Init.Mode = UART_MODE_TX_RX;
 8001456:	220c      	movs	r2, #12
{
 8001458:	b510      	push	{r4, lr}
  huart4.Instance = UART4;
 800145a:	481d      	ldr	r0, [pc, #116]	; (80014d0 <MX_UART4_Init+0x80>)
 800145c:	4c1d      	ldr	r4, [pc, #116]	; (80014d4 <MX_UART4_Init+0x84>)
  huart4.Init.BaudRate = 115200;
 800145e:	e9c0 1301 	strd	r1, r3, [r0, #4]
  huart4.Init.Parity = UART_PARITY_NONE;
 8001462:	e9c0 3303 	strd	r3, r3, [r0, #12]
  huart4.Init.HwFlowCtl = UART_HWCONTROL_NONE;
 8001466:	e9c0 2305 	strd	r2, r3, [r0, #20]
  huart4.Init.OverSampling = UART_OVERSAMPLING_16;
  huart4.Init.OneBitSampling = UART_ONE_BIT_SAMPLE_DISABLE;
 800146a:	e9c0 3307 	strd	r3, r3, [r0, #28]
  huart4.Init.ClockPrescaler = UART_PRESCALER_DIV1;
  huart4.AdvancedInit.AdvFeatureInit = UART_ADVFEATURE_NO_INIT;
 800146e:	e9c0 3309 	strd	r3, r3, [r0, #36]	; 0x24
  huart4.Instance = UART4;
 8001472:	6004      	str	r4, [r0, #0]
  if (HAL_UART_Init(&huart4) != HAL_OK)
 8001474:	f009 facc 	bl	800aa10 <HAL_UART_Init>
 8001478:	b970      	cbnz	r0, 8001498 <MX_UART4_Init+0x48>
  {
    Error_Handler();
  }
  if (HAL_UARTEx_SetTxFifoThreshold(&huart4, UART_TXFIFO_THRESHOLD_1_8) != HAL_OK)
 800147a:	2100      	movs	r1, #0
 800147c:	4814      	ldr	r0, [pc, #80]	; (80014d0 <MX_UART4_Init+0x80>)
 800147e:	f009 fb45 	bl	800ab0c <HAL_UARTEx_SetTxFifoThreshold>
 8001482:	b988      	cbnz	r0, 80014a8 <MX_UART4_Init+0x58>
  {
    Error_Handler();
  }
  if (HAL_UARTEx_SetRxFifoThreshold(&huart4, UART_RXFIFO_THRESHOLD_1_8) != HAL_OK)
 8001484:	2100      	movs	r1, #0
 8001486:	4812      	ldr	r0, [pc, #72]	; (80014d0 <MX_UART4_Init+0x80>)
 8001488:	f009 fb6a 	bl	800ab60 <HAL_UARTEx_SetRxFifoThreshold>
 800148c:	b9a0      	cbnz	r0, 80014b8 <MX_UART4_Init+0x68>
  {
    Error_Handler();
  }
  if (HAL_UARTEx_EnableFifoMode(&huart4) != HAL_OK)
 800148e:	4810      	ldr	r0, [pc, #64]	; (80014d0 <MX_UART4_Init+0x80>)
 8001490:	f009 fb18 	bl	800aac4 <HAL_UARTEx_EnableFifoMode>
 8001494:	b9b8      	cbnz	r0, 80014c6 <MX_UART4_Init+0x76>
  }
  /* USER CODE BEGIN UART4_Init 2 */

  /* USER CODE END UART4_Init 2 */

}
 8001496:	bd10      	pop	{r4, pc}
    Error_Handler();
 8001498:	f000 feea 	bl	8002270 <Error_Handler>
  if (HAL_UARTEx_SetTxFifoThreshold(&huart4, UART_TXFIFO_THRESHOLD_1_8) != HAL_OK)
 800149c:	2100      	movs	r1, #0
 800149e:	480c      	ldr	r0, [pc, #48]	; (80014d0 <MX_UART4_Init+0x80>)
 80014a0:	f009 fb34 	bl	800ab0c <HAL_UARTEx_SetTxFifoThreshold>
 80014a4:	2800      	cmp	r0, #0
 80014a6:	d0ed      	beq.n	8001484 <MX_UART4_Init+0x34>
    Error_Handler();
 80014a8:	f000 fee2 	bl	8002270 <Error_Handler>
  if (HAL_UARTEx_SetRxFifoThreshold(&huart4, UART_RXFIFO_THRESHOLD_1_8) != HAL_OK)
 80014ac:	2100      	movs	r1, #0
 80014ae:	4808      	ldr	r0, [pc, #32]	; (80014d0 <MX_UART4_Init+0x80>)
 80014b0:	f009 fb56 	bl	800ab60 <HAL_UARTEx_SetRxFifoThreshold>
 80014b4:	2800      	cmp	r0, #0
 80014b6:	d0ea      	beq.n	800148e <MX_UART4_Init+0x3e>
    Error_Handler();
 80014b8:	f000 feda 	bl	8002270 <Error_Handler>
  if (HAL_UARTEx_EnableFifoMode(&huart4) != HAL_OK)
 80014bc:	4804      	ldr	r0, [pc, #16]	; (80014d0 <MX_UART4_Init+0x80>)
 80014be:	f009 fb01 	bl	800aac4 <HAL_UARTEx_EnableFifoMode>
 80014c2:	2800      	cmp	r0, #0
 80014c4:	d0e7      	beq.n	8001496 <MX_UART4_Init+0x46>
}
 80014c6:	e8bd 4010 	ldmia.w	sp!, {r4, lr}
    Error_Handler();
 80014ca:	f000 bed1 	b.w	8002270 <Error_Handler>
 80014ce:	bf00      	nop
 80014d0:	20000b74 	.word	0x20000b74
 80014d4:	40004c00 	.word	0x40004c00

080014d8 <MX_USART2_UART_Init>:
  /* USER CODE BEGIN USART2_Init 1 */

  /* USER CODE END USART2_Init 1 */
  huart2.Instance = USART2;
  huart2.Init.BaudRate = 115200;
  huart2.Init.WordLength = UART_WORDLENGTH_8B;
 80014d8:	2300      	movs	r3, #0
  huart2.Init.BaudRate = 115200;
 80014da:	f44f 31e1 	mov.w	r1, #115200	; 0x1c200
  huart2.Init.StopBits = UART_STOPBITS_1;
  huart2.Init.Parity = UART_PARITY_NONE;
  huart2.Init.Mode = UART_MODE_TX_RX;
 80014de:	220c      	movs	r2, #12
{
 80014e0:	b510      	push	{r4, lr}
  huart2.Instance = USART2;
 80014e2:	481d      	ldr	r0, [pc, #116]	; (8001558 <MX_USART2_UART_Init+0x80>)
 80014e4:	4c1d      	ldr	r4, [pc, #116]	; (800155c <MX_USART2_UART_Init+0x84>)
  huart2.Init.BaudRate = 115200;
 80014e6:	e9c0 1301 	strd	r1, r3, [r0, #4]
  huart2.Init.Parity = UART_PARITY_NONE;
 80014ea:	e9c0 3303 	strd	r3, r3, [r0, #12]
  huart2.Init.HwFlowCtl = UART_HWCONTROL_NONE;
 80014ee:	e9c0 2305 	strd	r2, r3, [r0, #20]
  huart2.Init.OverSampling = UART_OVERSAMPLING_16;
  huart2.Init.OneBitSampling = UART_ONE_BIT_SAMPLE_DISABLE;
 80014f2:	e9c0 3307 	strd	r3, r3, [r0, #28]
  huart2.Init.ClockPrescaler = UART_PRESCALER_DIV1;
  huart2.AdvancedInit.AdvFeatureInit = UART_ADVFEATURE_NO_INIT;
 80014f6:	e9c0 3309 	strd	r3, r3, [r0, #36]	; 0x24
  huart2.Instance = USART2;
 80014fa:	6004      	str	r4, [r0, #0]
  if (HAL_UART_Init(&huart2) != HAL_OK)
 80014fc:	f009 fa88 	bl	800aa10 <HAL_UART_Init>
 8001500:	b970      	cbnz	r0, 8001520 <MX_USART2_UART_Init+0x48>
  {
    Error_Handler();
  }
  if (HAL_UARTEx_SetTxFifoThreshold(&huart2, UART_TXFIFO_THRESHOLD_1_8) != HAL_OK)
 8001502:	2100      	movs	r1, #0
 8001504:	4814      	ldr	r0, [pc, #80]	; (8001558 <MX_USART2_UART_Init+0x80>)
 8001506:	f009 fb01 	bl	800ab0c <HAL_UARTEx_SetTxFifoThreshold>
 800150a:	b988      	cbnz	r0, 8001530 <MX_USART2_UART_Init+0x58>
  {
    Error_Handler();
  }
  if (HAL_UARTEx_SetRxFifoThreshold(&huart2, UART_RXFIFO_THRESHOLD_1_8) != HAL_OK)
 800150c:	2100      	movs	r1, #0
 800150e:	4812      	ldr	r0, [pc, #72]	; (8001558 <MX_USART2_UART_Init+0x80>)
 8001510:	f009 fb26 	bl	800ab60 <HAL_UARTEx_SetRxFifoThreshold>
 8001514:	b9a0      	cbnz	r0, 8001540 <MX_USART2_UART_Init+0x68>
  {
    Error_Handler();
  }
  if (HAL_UARTEx_EnableFifoMode(&huart2) != HAL_OK)
 8001516:	4810      	ldr	r0, [pc, #64]	; (8001558 <MX_USART2_UART_Init+0x80>)
 8001518:	f009 fad4 	bl	800aac4 <HAL_UARTEx_EnableFifoMode>
 800151c:	b9b8      	cbnz	r0, 800154e <MX_USART2_UART_Init+0x76>
  }
  /* USER CODE BEGIN USART2_Init 2 */

  /* USER CODE END USART2_Init 2 */

}
 800151e:	bd10      	pop	{r4, pc}
    Error_Handler();
 8001520:	f000 fea6 	bl	8002270 <Error_Handler>
  if (HAL_UARTEx_SetTxFifoThreshold(&huart2, UART_TXFIFO_THRESHOLD_1_8) != HAL_OK)
 8001524:	2100      	movs	r1, #0
 8001526:	480c      	ldr	r0, [pc, #48]	; (8001558 <MX_USART2_UART_Init+0x80>)
 8001528:	f009 faf0 	bl	800ab0c <HAL_UARTEx_SetTxFifoThreshold>
 800152c:	2800      	cmp	r0, #0
 800152e:	d0ed      	beq.n	800150c <MX_USART2_UART_Init+0x34>
    Error_Handler();
 8001530:	f000 fe9e 	bl	8002270 <Error_Handler>
  if (HAL_UARTEx_SetRxFifoThreshold(&huart2, UART_RXFIFO_THRESHOLD_1_8) != HAL_OK)
 8001534:	2100      	movs	r1, #0
 8001536:	4808      	ldr	r0, [pc, #32]	; (8001558 <MX_USART2_UART_Init+0x80>)
 8001538:	f009 fb12 	bl	800ab60 <HAL_UARTEx_SetRxFifoThreshold>
 800153c:	2800      	cmp	r0, #0
 800153e:	d0ea      	beq.n	8001516 <MX_USART2_UART_Init+0x3e>
    Error_Handler();
 8001540:	f000 fe96 	bl	8002270 <Error_Handler>
  if (HAL_UARTEx_EnableFifoMode(&huart2) != HAL_OK)
 8001544:	4804      	ldr	r0, [pc, #16]	; (8001558 <MX_USART2_UART_Init+0x80>)
 8001546:	f009 fabd 	bl	800aac4 <HAL_UARTEx_EnableFifoMode>
 800154a:	2800      	cmp	r0, #0
 800154c:	d0e7      	beq.n	800151e <MX_USART2_UART_Init+0x46>
}
 800154e:	e8bd 4010 	ldmia.w	sp!, {r4, lr}
    Error_Handler();
 8001552:	f000 be8d 	b.w	8002270 <Error_Handler>
 8001556:	bf00      	nop
 8001558:	20000ae0 	.word	0x20000ae0
 800155c:	40004400 	.word	0x40004400

08001560 <HAL_UART_MspInit>:

void HAL_UART_MspInit(UART_HandleTypeDef* uartHandle)
{
 8001560:	b5f0      	push	{r4, r5, r6, r7, lr}

  GPIO_InitTypeDef GPIO_InitStruct = {0};
 8001562:	2100      	movs	r1, #0
{
 8001564:	4604      	mov	r4, r0
 8001566:	b0cd      	sub	sp, #308	; 0x134
  RCC_PeriphCLKInitTypeDef PeriphClkInitStruct = {0};
 8001568:	f44f 7284 	mov.w	r2, #264	; 0x108
 800156c:	a80a      	add	r0, sp, #40	; 0x28
  GPIO_InitTypeDef GPIO_InitStruct = {0};
 800156e:	e9cd 1105 	strd	r1, r1, [sp, #20]
 8001572:	e9cd 1107 	strd	r1, r1, [sp, #28]
 8001576:	9109      	str	r1, [sp, #36]	; 0x24
  RCC_PeriphCLKInitTypeDef PeriphClkInitStruct = {0};
 8001578:	f00a fdc2 	bl	800c100 <memset>
  if(uartHandle->Instance==UART4)
 800157c:	4a93      	ldr	r2, [pc, #588]	; (80017cc <HAL_UART_MspInit+0x26c>)
 800157e:	6823      	ldr	r3, [r4, #0]
 8001580:	4293      	cmp	r3, r2
 8001582:	d005      	beq.n	8001590 <HAL_UART_MspInit+0x30>
    HAL_NVIC_EnableIRQ(UART4_IRQn);
  /* USER CODE BEGIN UART4_MspInit 1 */

  /* USER CODE END UART4_MspInit 1 */
  }
  else if(uartHandle->Instance==USART2)
 8001584:	4a92      	ldr	r2, [pc, #584]	; (80017d0 <HAL_UART_MspInit+0x270>)
 8001586:	4293      	cmp	r3, r2
 8001588:	f000 8084 	beq.w	8001694 <HAL_UART_MspInit+0x134>
    HAL_NVIC_EnableIRQ(USART2_IRQn);
  /* USER CODE BEGIN USART2_MspInit 1 */

  /* USER CODE END USART2_MspInit 1 */
  }
}
 800158c:	b04d      	add	sp, #308	; 0x134
 800158e:	bdf0      	pop	{r4, r5, r6, r7, pc}
    PeriphClkInitStruct.PeriphClockSelection = RCC_PERIPHCLK_UART4;
 8001590:	2208      	movs	r2, #8
 8001592:	2300      	movs	r3, #0
    if (HAL_RCCEx_PeriphCLKConfig(&PeriphClkInitStruct) != HAL_OK)
 8001594:	a80a      	add	r0, sp, #40	; 0x28
    PeriphClkInitStruct.PeriphClockSelection = RCC_PERIPHCLK_UART4;
 8001596:	e9cd 230a 	strd	r2, r3, [sp, #40]	; 0x28
    if (HAL_RCCEx_PeriphCLKConfig(&PeriphClkInitStruct) != HAL_OK)
 800159a:	f004 fa95 	bl	8005ac8 <HAL_RCCEx_PeriphCLKConfig>
 800159e:	2800      	cmp	r0, #0
 80015a0:	f040 8101 	bne.w	80017a6 <HAL_UART_MspInit+0x246>
    __HAL_RCC_UART4_CLK_ENABLE();
 80015a4:	4b8b      	ldr	r3, [pc, #556]	; (80017d4 <HAL_UART_MspInit+0x274>)
    GPIO_InitStruct.Pull = GPIO_NOPULL;
 80015a6:	2600      	movs	r6, #0
    __HAL_RCC_UART4_CLK_ENABLE();
 80015a8:	f8d3 209c 	ldr.w	r2, [r3, #156]	; 0x9c
    GPIO_InitStruct.Alternate = GPIO_AF8_UART4;
 80015ac:	2708      	movs	r7, #8
    __HAL_RCC_UART4_CLK_ENABLE();
 80015ae:	f442 2200 	orr.w	r2, r2, #524288	; 0x80000
 80015b2:	f8c3 209c 	str.w	r2, [r3, #156]	; 0x9c
 80015b6:	f8d3 209c 	ldr.w	r2, [r3, #156]	; 0x9c
    HAL_GPIO_Init(GPIOA, &GPIO_InitStruct);
 80015ba:	4887      	ldr	r0, [pc, #540]	; (80017d8 <HAL_UART_MspInit+0x278>)
    __HAL_RCC_UART4_CLK_ENABLE();
 80015bc:	f402 2200 	and.w	r2, r2, #524288	; 0x80000
 80015c0:	9201      	str	r2, [sp, #4]
 80015c2:	9a01      	ldr	r2, [sp, #4]
    __HAL_RCC_GPIOA_CLK_ENABLE();
 80015c4:	f8d3 208c 	ldr.w	r2, [r3, #140]	; 0x8c
    HAL_GPIO_Init(GPIOA, &GPIO_InitStruct);
 80015c8:	a905      	add	r1, sp, #20
    __HAL_RCC_GPIOA_CLK_ENABLE();
 80015ca:	f042 0201 	orr.w	r2, r2, #1
 80015ce:	f8c3 208c 	str.w	r2, [r3, #140]	; 0x8c
 80015d2:	f8d3 308c 	ldr.w	r3, [r3, #140]	; 0x8c
    handle_GPDMA1_Channel3.Instance = GPDMA1_Channel3;
 80015d6:	4d81      	ldr	r5, [pc, #516]	; (80017dc <HAL_UART_MspInit+0x27c>)
    __HAL_RCC_GPIOA_CLK_ENABLE();
 80015d8:	f003 0301 	and.w	r3, r3, #1
 80015dc:	9302      	str	r3, [sp, #8]
 80015de:	9a02      	ldr	r2, [sp, #8]
    GPIO_InitStruct.Pin = GPIO_PIN_0|GPIO_PIN_1;
 80015e0:	2303      	movs	r3, #3
    GPIO_InitStruct.Mode = GPIO_MODE_AF_PP;
 80015e2:	2202      	movs	r2, #2
    GPIO_InitStruct.Speed = GPIO_SPEED_FREQ_LOW;
 80015e4:	e9cd 6607 	strd	r6, r6, [sp, #28]
    GPIO_InitStruct.Pin = GPIO_PIN_0|GPIO_PIN_1;
 80015e8:	e9cd 3205 	strd	r3, r2, [sp, #20]
    GPIO_InitStruct.Alternate = GPIO_AF8_UART4;
 80015ec:	9709      	str	r7, [sp, #36]	; 0x24
    HAL_GPIO_Init(GPIOA, &GPIO_InitStruct);
 80015ee:	f003 fb0f 	bl	8004c10 <HAL_GPIO_Init>
    handle_GPDMA1_Channel3.Instance = GPDMA1_Channel3;
 80015f2:	4b7b      	ldr	r3, [pc, #492]	; (80017e0 <HAL_UART_MspInit+0x280>)
    handle_GPDMA1_Channel3.Init.Request = GPDMA1_REQUEST_UART4_TX;
 80015f4:	221c      	movs	r2, #28
    handle_GPDMA1_Channel3.Init.Direction = DMA_MEMORY_TO_PERIPH;
 80015f6:	f44f 6180 	mov.w	r1, #1024	; 0x400
    handle_GPDMA1_Channel3.Instance = GPDMA1_Channel3;
 80015fa:	602b      	str	r3, [r5, #0]
    handle_GPDMA1_Channel3.Init.SrcBurstLength = 1;
 80015fc:	2301      	movs	r3, #1
    if (HAL_DMA_Init(&handle_GPDMA1_Channel3) != HAL_OK)
 80015fe:	4628      	mov	r0, r5
    handle_GPDMA1_Channel3.Init.SrcDataWidth = DMA_SRC_DATAWIDTH_BYTE;
 8001600:	e9c5 6605 	strd	r6, r6, [r5, #20]
    handle_GPDMA1_Channel3.Init.Priority = DMA_LOW_PRIORITY_LOW_WEIGHT;
 8001604:	e9c5 6607 	strd	r6, r6, [r5, #28]
    handle_GPDMA1_Channel3.Init.TransferEventMode = DMA_TCEM_BLOCK_TRANSFER;
 8001608:	e9c5 660b 	strd	r6, r6, [r5, #44]	; 0x2c
    handle_GPDMA1_Channel3.Init.DestBurstLength = 1;
 800160c:	e9c5 3309 	strd	r3, r3, [r5, #36]	; 0x24
    handle_GPDMA1_Channel3.Init.BlkHWRequest = DMA_BREQ_SINGLE_BURST;
 8001610:	60ae      	str	r6, [r5, #8]
    handle_GPDMA1_Channel3.Init.SrcInc = DMA_SINC_INCREMENTED;
 8001612:	612f      	str	r7, [r5, #16]
    handle_GPDMA1_Channel3.Init.Mode = DMA_NORMAL;
 8001614:	636e      	str	r6, [r5, #52]	; 0x34
    handle_GPDMA1_Channel3.Init.Direction = DMA_MEMORY_TO_PERIPH;
 8001616:	60e9      	str	r1, [r5, #12]
    handle_GPDMA1_Channel3.Init.Request = GPDMA1_REQUEST_UART4_TX;
 8001618:	606a      	str	r2, [r5, #4]
    if (HAL_DMA_Init(&handle_GPDMA1_Channel3) != HAL_OK)
 800161a:	f002 ff05 	bl	8004428 <HAL_DMA_Init>
 800161e:	2800      	cmp	r0, #0
 8001620:	f040 80be 	bne.w	80017a0 <HAL_UART_MspInit+0x240>
    if (HAL_DMA_ConfigChannelAttributes(&handle_GPDMA1_Channel3, DMA_CHANNEL_NPRIV) != HAL_OK)
 8001624:	2110      	movs	r1, #16
 8001626:	486d      	ldr	r0, [pc, #436]	; (80017dc <HAL_UART_MspInit+0x27c>)
    __HAL_LINKDMA(uartHandle, hdmatx, handle_GPDMA1_Channel3);
 8001628:	67e5      	str	r5, [r4, #124]	; 0x7c
 800162a:	65ec      	str	r4, [r5, #92]	; 0x5c
    if (HAL_DMA_ConfigChannelAttributes(&handle_GPDMA1_Channel3, DMA_CHANNEL_NPRIV) != HAL_OK)
 800162c:	f003 fa6c 	bl	8004b08 <HAL_DMA_ConfigChannelAttributes>
 8001630:	2800      	cmp	r0, #0
 8001632:	f040 80b2 	bne.w	800179a <HAL_UART_MspInit+0x23a>
    handle_GPDMA1_Channel1.Init.BlkHWRequest = DMA_BREQ_SINGLE_BURST;
 8001636:	2300      	movs	r3, #0
    handle_GPDMA1_Channel1.Init.SrcBurstLength = 1;
 8001638:	2201      	movs	r2, #1
    handle_GPDMA1_Channel1.Init.Request = GPDMA1_REQUEST_UART4_RX;
 800163a:	201b      	movs	r0, #27
    handle_GPDMA1_Channel1.Init.DestInc = DMA_DINC_INCREMENTED;
 800163c:	f44f 2100 	mov.w	r1, #524288	; 0x80000
    handle_GPDMA1_Channel1.Instance = GPDMA1_Channel1;
 8001640:	4d68      	ldr	r5, [pc, #416]	; (80017e4 <HAL_UART_MspInit+0x284>)
    handle_GPDMA1_Channel1.Init.BlkHWRequest = DMA_BREQ_SINGLE_BURST;
 8001642:	e9c5 0301 	strd	r0, r3, [r5, #4]
    handle_GPDMA1_Channel1.Init.SrcInc = DMA_SINC_FIXED;
 8001646:	e9c5 3303 	strd	r3, r3, [r5, #12]
    handle_GPDMA1_Channel1.Init.DestDataWidth = DMA_DEST_DATAWIDTH_BYTE;
 800164a:	e9c5 3306 	strd	r3, r3, [r5, #24]
    handle_GPDMA1_Channel1.Init.SrcBurstLength = 1;
 800164e:	e9c5 3208 	strd	r3, r2, [r5, #32]
    handle_GPDMA1_Channel1.Init.TransferAllocatedPort = DMA_SRC_ALLOCATED_PORT0|DMA_DEST_ALLOCATED_PORT0;
 8001652:	e9c5 230a 	strd	r2, r3, [r5, #40]	; 0x28
    handle_GPDMA1_Channel1.Init.Mode = DMA_NORMAL;
 8001656:	e9c5 330c 	strd	r3, r3, [r5, #48]	; 0x30
    handle_GPDMA1_Channel1.Instance = GPDMA1_Channel1;
 800165a:	4b63      	ldr	r3, [pc, #396]	; (80017e8 <HAL_UART_MspInit+0x288>)
    if (HAL_DMA_Init(&handle_GPDMA1_Channel1) != HAL_OK)
 800165c:	4628      	mov	r0, r5
    handle_GPDMA1_Channel1.Init.DestInc = DMA_DINC_INCREMENTED;
 800165e:	6169      	str	r1, [r5, #20]
    handle_GPDMA1_Channel1.Instance = GPDMA1_Channel1;
 8001660:	602b      	str	r3, [r5, #0]
    if (HAL_DMA_Init(&handle_GPDMA1_Channel1) != HAL_OK)
 8001662:	f002 fee1 	bl	8004428 <HAL_DMA_Init>
 8001666:	2800      	cmp	r0, #0
 8001668:	f040 8094 	bne.w	8001794 <HAL_UART_MspInit+0x234>
    if (HAL_DMA_ConfigChannelAttributes(&handle_GPDMA1_Channel1, DMA_CHANNEL_NPRIV) != HAL_OK)
 800166c:	2110      	movs	r1, #16
 800166e:	485d      	ldr	r0, [pc, #372]	; (80017e4 <HAL_UART_MspInit+0x284>)
    __HAL_LINKDMA(uartHandle, hdmarx, handle_GPDMA1_Channel1);
 8001670:	f8c4 5080 	str.w	r5, [r4, #128]	; 0x80
 8001674:	65ec      	str	r4, [r5, #92]	; 0x5c
    if (HAL_DMA_ConfigChannelAttributes(&handle_GPDMA1_Channel1, DMA_CHANNEL_NPRIV) != HAL_OK)
 8001676:	f003 fa47 	bl	8004b08 <HAL_DMA_ConfigChannelAttributes>
 800167a:	2800      	cmp	r0, #0
 800167c:	f040 8087 	bne.w	800178e <HAL_UART_MspInit+0x22e>
    HAL_NVIC_SetPriority(UART4_IRQn, 5, 0);
 8001680:	2200      	movs	r2, #0
 8001682:	2105      	movs	r1, #5
 8001684:	203d      	movs	r0, #61	; 0x3d
 8001686:	f002 fe33 	bl	80042f0 <HAL_NVIC_SetPriority>
    HAL_NVIC_EnableIRQ(UART4_IRQn);
 800168a:	203d      	movs	r0, #61	; 0x3d
 800168c:	f002 fe6e 	bl	800436c <HAL_NVIC_EnableIRQ>
}
 8001690:	b04d      	add	sp, #308	; 0x134
 8001692:	bdf0      	pop	{r4, r5, r6, r7, pc}
    PeriphClkInitStruct.PeriphClockSelection = RCC_PERIPHCLK_USART2;
 8001694:	2202      	movs	r2, #2
 8001696:	2300      	movs	r3, #0
    if (HAL_RCCEx_PeriphCLKConfig(&PeriphClkInitStruct) != HAL_OK)
 8001698:	a80a      	add	r0, sp, #40	; 0x28
    PeriphClkInitStruct.PeriphClockSelection = RCC_PERIPHCLK_USART2;
 800169a:	e9cd 230a 	strd	r2, r3, [sp, #40]	; 0x28
    if (HAL_RCCEx_PeriphCLKConfig(&PeriphClkInitStruct) != HAL_OK)
 800169e:	f004 fa13 	bl	8005ac8 <HAL_RCCEx_PeriphCLKConfig>
 80016a2:	2800      	cmp	r0, #0
 80016a4:	f040 8082 	bne.w	80017ac <HAL_UART_MspInit+0x24c>
    __HAL_RCC_USART2_CLK_ENABLE();
 80016a8:	4b4a      	ldr	r3, [pc, #296]	; (80017d4 <HAL_UART_MspInit+0x274>)
    GPIO_InitStruct.Alternate = GPIO_AF7_USART2;
 80016aa:	2107      	movs	r1, #7
    __HAL_RCC_USART2_CLK_ENABLE();
 80016ac:	f8d3 209c 	ldr.w	r2, [r3, #156]	; 0x9c
    GPIO_InitStruct.Pull = GPIO_NOPULL;
 80016b0:	2600      	movs	r6, #0
    __HAL_RCC_USART2_CLK_ENABLE();
 80016b2:	f442 3200 	orr.w	r2, r2, #131072	; 0x20000
 80016b6:	f8c3 209c 	str.w	r2, [r3, #156]	; 0x9c
 80016ba:	f8d3 209c 	ldr.w	r2, [r3, #156]	; 0x9c
    HAL_GPIO_Init(GPIOA, &GPIO_InitStruct);
 80016be:	4846      	ldr	r0, [pc, #280]	; (80017d8 <HAL_UART_MspInit+0x278>)
    __HAL_RCC_USART2_CLK_ENABLE();
 80016c0:	f402 3200 	and.w	r2, r2, #131072	; 0x20000
 80016c4:	9203      	str	r2, [sp, #12]
 80016c6:	9a03      	ldr	r2, [sp, #12]
    __HAL_RCC_GPIOA_CLK_ENABLE();
 80016c8:	f8d3 208c 	ldr.w	r2, [r3, #140]	; 0x8c
    handle_GPDMA1_Channel2.Instance = GPDMA1_Channel2;
 80016cc:	4d47      	ldr	r5, [pc, #284]	; (80017ec <HAL_UART_MspInit+0x28c>)
    __HAL_RCC_GPIOA_CLK_ENABLE();
 80016ce:	f042 0201 	orr.w	r2, r2, #1
 80016d2:	f8c3 208c 	str.w	r2, [r3, #140]	; 0x8c
 80016d6:	f8d3 308c 	ldr.w	r3, [r3, #140]	; 0x8c
    GPIO_InitStruct.Pin = GPIO_PIN_2|GPIO_PIN_3;
 80016da:	220c      	movs	r2, #12
    __HAL_RCC_GPIOA_CLK_ENABLE();
 80016dc:	f003 0301 	and.w	r3, r3, #1
 80016e0:	9304      	str	r3, [sp, #16]
 80016e2:	9b04      	ldr	r3, [sp, #16]
    GPIO_InitStruct.Mode = GPIO_MODE_AF_PP;
 80016e4:	2302      	movs	r3, #2
    GPIO_InitStruct.Alternate = GPIO_AF7_USART2;
 80016e6:	9109      	str	r1, [sp, #36]	; 0x24
    HAL_GPIO_Init(GPIOA, &GPIO_InitStruct);
 80016e8:	a905      	add	r1, sp, #20
    GPIO_InitStruct.Mode = GPIO_MODE_AF_PP;
 80016ea:	e9cd 2305 	strd	r2, r3, [sp, #20]
    GPIO_InitStruct.Speed = GPIO_SPEED_FREQ_LOW;
 80016ee:	e9cd 6607 	strd	r6, r6, [sp, #28]
    HAL_GPIO_Init(GPIOA, &GPIO_InitStruct);
 80016f2:	f003 fa8d 	bl	8004c10 <HAL_GPIO_Init>
    handle_GPDMA1_Channel2.Init.SrcBurstLength = 1;
 80016f6:	2301      	movs	r3, #1
    handle_GPDMA1_Channel2.Init.Request = GPDMA1_REQUEST_USART2_RX;
 80016f8:	2117      	movs	r1, #23
    handle_GPDMA1_Channel2.Init.DestInc = DMA_DINC_INCREMENTED;
 80016fa:	f44f 2200 	mov.w	r2, #524288	; 0x80000
    handle_GPDMA1_Channel2.Init.DestBurstLength = 1;
 80016fe:	e9c5 3309 	strd	r3, r3, [r5, #36]	; 0x24
    handle_GPDMA1_Channel2.Instance = GPDMA1_Channel2;
 8001702:	4b3b      	ldr	r3, [pc, #236]	; (80017f0 <HAL_UART_MspInit+0x290>)
    if (HAL_DMA_Init(&handle_GPDMA1_Channel2) != HAL_OK)
 8001704:	4628      	mov	r0, r5
    handle_GPDMA1_Channel2.Init.Direction = DMA_PERIPH_TO_MEMORY;
 8001706:	e9c5 6602 	strd	r6, r6, [r5, #8]
    handle_GPDMA1_Channel2.Init.DestDataWidth = DMA_DEST_DATAWIDTH_BYTE;
 800170a:	e9c5 6606 	strd	r6, r6, [r5, #24]
    handle_GPDMA1_Channel2.Init.TransferEventMode = DMA_TCEM_BLOCK_TRANSFER;
 800170e:	e9c5 660b 	strd	r6, r6, [r5, #44]	; 0x2c
    handle_GPDMA1_Channel2.Init.SrcInc = DMA_SINC_FIXED;
 8001712:	612e      	str	r6, [r5, #16]
    handle_GPDMA1_Channel2.Init.Priority = DMA_LOW_PRIORITY_LOW_WEIGHT;
 8001714:	622e      	str	r6, [r5, #32]
    handle_GPDMA1_Channel2.Init.Mode = DMA_NORMAL;
 8001716:	636e      	str	r6, [r5, #52]	; 0x34
    handle_GPDMA1_Channel2.Init.Request = GPDMA1_REQUEST_USART2_RX;
 8001718:	6069      	str	r1, [r5, #4]
    handle_GPDMA1_Channel2.Init.DestInc = DMA_DINC_INCREMENTED;
 800171a:	616a      	str	r2, [r5, #20]
    handle_GPDMA1_Channel2.Instance = GPDMA1_Channel2;
 800171c:	602b      	str	r3, [r5, #0]
    if (HAL_DMA_Init(&handle_GPDMA1_Channel2) != HAL_OK)
 800171e:	f002 fe83 	bl	8004428 <HAL_DMA_Init>
 8001722:	2800      	cmp	r0, #0
 8001724:	d14e      	bne.n	80017c4 <HAL_UART_MspInit+0x264>
    if (HAL_DMA_ConfigChannelAttributes(&handle_GPDMA1_Channel2, DMA_CHANNEL_NPRIV) != HAL_OK)
 8001726:	2110      	movs	r1, #16
 8001728:	4830      	ldr	r0, [pc, #192]	; (80017ec <HAL_UART_MspInit+0x28c>)
    __HAL_LINKDMA(uartHandle, hdmarx, handle_GPDMA1_Channel2);
 800172a:	f8c4 5080 	str.w	r5, [r4, #128]	; 0x80
 800172e:	65ec      	str	r4, [r5, #92]	; 0x5c
    if (HAL_DMA_ConfigChannelAttributes(&handle_GPDMA1_Channel2, DMA_CHANNEL_NPRIV) != HAL_OK)
 8001730:	f003 f9ea 	bl	8004b08 <HAL_DMA_ConfigChannelAttributes>
 8001734:	2800      	cmp	r0, #0
 8001736:	d142      	bne.n	80017be <HAL_UART_MspInit+0x25e>
    handle_GPDMA1_Channel0.Init.Direction = DMA_MEMORY_TO_PERIPH;
 8001738:	f44f 6180 	mov.w	r1, #1024	; 0x400
    handle_GPDMA1_Channel0.Instance = GPDMA1_Channel0;
 800173c:	4d2d      	ldr	r5, [pc, #180]	; (80017f4 <HAL_UART_MspInit+0x294>)
    handle_GPDMA1_Channel0.Init.BlkHWRequest = DMA_BREQ_SINGLE_BURST;
 800173e:	2300      	movs	r3, #0
    handle_GPDMA1_Channel0.Init.Request = GPDMA1_REQUEST_USART2_TX;
 8001740:	2018      	movs	r0, #24
    handle_GPDMA1_Channel0.Init.SrcBurstLength = 1;
 8001742:	2201      	movs	r2, #1
    handle_GPDMA1_Channel0.Init.Direction = DMA_MEMORY_TO_PERIPH;
 8001744:	60e9      	str	r1, [r5, #12]
    handle_GPDMA1_Channel0.Init.SrcInc = DMA_SINC_INCREMENTED;
 8001746:	2108      	movs	r1, #8
    handle_GPDMA1_Channel0.Init.BlkHWRequest = DMA_BREQ_SINGLE_BURST;
 8001748:	e9c5 0301 	strd	r0, r3, [r5, #4]
    handle_GPDMA1_Channel0.Init.SrcDataWidth = DMA_SRC_DATAWIDTH_BYTE;
 800174c:	e9c5 3305 	strd	r3, r3, [r5, #20]
    handle_GPDMA1_Channel0.Init.Priority = DMA_LOW_PRIORITY_LOW_WEIGHT;
 8001750:	e9c5 3307 	strd	r3, r3, [r5, #28]
    handle_GPDMA1_Channel0.Init.TransferEventMode = DMA_TCEM_BLOCK_TRANSFER;
 8001754:	e9c5 330b 	strd	r3, r3, [r5, #44]	; 0x2c
    handle_GPDMA1_Channel0.Init.Mode = DMA_NORMAL;
 8001758:	636b      	str	r3, [r5, #52]	; 0x34
    handle_GPDMA1_Channel0.Instance = GPDMA1_Channel0;
 800175a:	4b27      	ldr	r3, [pc, #156]	; (80017f8 <HAL_UART_MspInit+0x298>)
    if (HAL_DMA_Init(&handle_GPDMA1_Channel0) != HAL_OK)
 800175c:	4628      	mov	r0, r5
    handle_GPDMA1_Channel0.Init.DestBurstLength = 1;
 800175e:	e9c5 2209 	strd	r2, r2, [r5, #36]	; 0x24
    handle_GPDMA1_Channel0.Instance = GPDMA1_Channel0;
 8001762:	602b      	str	r3, [r5, #0]
    handle_GPDMA1_Channel0.Init.SrcInc = DMA_SINC_INCREMENTED;
 8001764:	6129      	str	r1, [r5, #16]
    if (HAL_DMA_Init(&handle_GPDMA1_Channel0) != HAL_OK)
 8001766:	f002 fe5f 	bl	8004428 <HAL_DMA_Init>
 800176a:	bb28      	cbnz	r0, 80017b8 <HAL_UART_MspInit+0x258>
    if (HAL_DMA_ConfigChannelAttributes(&handle_GPDMA1_Channel0, DMA_CHANNEL_NPRIV) != HAL_OK)
 800176c:	2110      	movs	r1, #16
 800176e:	4821      	ldr	r0, [pc, #132]	; (80017f4 <HAL_UART_MspInit+0x294>)
    __HAL_LINKDMA(uartHandle, hdmatx, handle_GPDMA1_Channel0);
 8001770:	67e5      	str	r5, [r4, #124]	; 0x7c
 8001772:	65ec      	str	r4, [r5, #92]	; 0x5c
    if (HAL_DMA_ConfigChannelAttributes(&handle_GPDMA1_Channel0, DMA_CHANNEL_NPRIV) != HAL_OK)
 8001774:	f003 f9c8 	bl	8004b08 <HAL_DMA_ConfigChannelAttributes>
 8001778:	b9d8      	cbnz	r0, 80017b2 <HAL_UART_MspInit+0x252>
    HAL_NVIC_SetPriority(USART2_IRQn, 5, 0);
 800177a:	2200      	movs	r2, #0
 800177c:	2105      	movs	r1, #5
 800177e:	203b      	movs	r0, #59	; 0x3b
 8001780:	f002 fdb6 	bl	80042f0 <HAL_NVIC_SetPriority>
    HAL_NVIC_EnableIRQ(USART2_IRQn);
 8001784:	203b      	movs	r0, #59	; 0x3b
 8001786:	f002 fdf1 	bl	800436c <HAL_NVIC_EnableIRQ>
}
 800178a:	b04d      	add	sp, #308	; 0x134
 800178c:	bdf0      	pop	{r4, r5, r6, r7, pc}
      Error_Handler();
 800178e:	f000 fd6f 	bl	8002270 <Error_Handler>
 8001792:	e775      	b.n	8001680 <HAL_UART_MspInit+0x120>
      Error_Handler();
 8001794:	f000 fd6c 	bl	8002270 <Error_Handler>
 8001798:	e768      	b.n	800166c <HAL_UART_MspInit+0x10c>
      Error_Handler();
 800179a:	f000 fd69 	bl	8002270 <Error_Handler>
 800179e:	e74a      	b.n	8001636 <HAL_UART_MspInit+0xd6>
      Error_Handler();
 80017a0:	f000 fd66 	bl	8002270 <Error_Handler>
 80017a4:	e73e      	b.n	8001624 <HAL_UART_MspInit+0xc4>
      Error_Handler();
 80017a6:	f000 fd63 	bl	8002270 <Error_Handler>
 80017aa:	e6fb      	b.n	80015a4 <HAL_UART_MspInit+0x44>
      Error_Handler();
 80017ac:	f000 fd60 	bl	8002270 <Error_Handler>
 80017b0:	e77a      	b.n	80016a8 <HAL_UART_MspInit+0x148>
      Error_Handler();
 80017b2:	f000 fd5d 	bl	8002270 <Error_Handler>
 80017b6:	e7e0      	b.n	800177a <HAL_UART_MspInit+0x21a>
      Error_Handler();
 80017b8:	f000 fd5a 	bl	8002270 <Error_Handler>
 80017bc:	e7d6      	b.n	800176c <HAL_UART_MspInit+0x20c>
      Error_Handler();
 80017be:	f000 fd57 	bl	8002270 <Error_Handler>
 80017c2:	e7b9      	b.n	8001738 <HAL_UART_MspInit+0x1d8>
      Error_Handler();
 80017c4:	f000 fd54 	bl	8002270 <Error_Handler>
 80017c8:	e7ad      	b.n	8001726 <HAL_UART_MspInit+0x1c6>
 80017ca:	bf00      	nop
 80017cc:	40004c00 	.word	0x40004c00
 80017d0:	40004400 	.word	0x40004400
 80017d4:	44020c00 	.word	0x44020c00
 80017d8:	42020000 	.word	0x42020000
 80017dc:	20000a68 	.word	0x20000a68
 80017e0:	400201d0 	.word	0x400201d0
 80017e4:	20000978 	.word	0x20000978
 80017e8:	400200d0 	.word	0x400200d0
 80017ec:	200009f0 	.word	0x200009f0
 80017f0:	40020150 	.word	0x40020150
 80017f4:	20000900 	.word	0x20000900
 80017f8:	40020050 	.word	0x40020050

080017fc <HAL_UART_TxCpltCallback>:


void HAL_UART_TxCpltCallback(UART_HandleTypeDef *huart)
{

}
 80017fc:	4770      	bx	lr
 80017fe:	bf00      	nop

08001800 <HAL_UARTEx_RxEventCallback>:
}

void HAL_UARTEx_RxEventCallback(UART_HandleTypeDef *huart, uint16_t Size)
{

}
 8001800:	4770      	bx	lr
 8001802:	bf00      	nop

08001804 <HAL_UART_ErrorCallback>:
 8001804:	4770      	bx	lr
 8001806:	bf00      	nop

08001808 <myputstr>:
	return ch;	
}

void myputstr(const char *str)
{
	while(*str) {
 8001808:	7801      	ldrb	r1, [r0, #0]
 800180a:	b141      	cbz	r1, 800181e <myputstr+0x16>
	while((USART2->ISR&0X40)==0);//,   
 800180c:	4a04      	ldr	r2, [pc, #16]	; (8001820 <myputstr+0x18>)
 800180e:	69d3      	ldr	r3, [r2, #28]
 8001810:	065b      	lsls	r3, r3, #25
 8001812:	d5fc      	bpl.n	800180e <myputstr+0x6>
	USART2->TDR = (uint8_t) ch;      
 8001814:	6291      	str	r1, [r2, #40]	; 0x28
	while(*str) {
 8001816:	f810 1f01 	ldrb.w	r1, [r0, #1]!
 800181a:	2900      	cmp	r1, #0
 800181c:	d1f7      	bne.n	800180e <myputstr+0x6>
		//HAL_UART_Transmit(&huart1, (uint8_t *)str, 1, 0xFFFF);
		myputchar(*str);
		str++;
	}

}
 800181e:	4770      	bx	lr
 8001820:	40004400 	.word	0x40004400

08001824 <Draw_Init>:
{
#ifdef FERRRTOS_FLAG
	/* mutex */
	g_spi_lcd_lock = xSemaphoreCreateMutex();
#endif
    LCD_GetInfo(&g_lcd_width, &g_lcd_height);
 8001824:	4901      	ldr	r1, [pc, #4]	; (800182c <Draw_Init+0x8>)
 8001826:	4802      	ldr	r0, [pc, #8]	; (8001830 <Draw_Init+0xc>)
 8001828:	f002 bcb6 	b.w	8004198 <LCD_GetInfo>
 800182c:	20000c0c 	.word	0x20000c0c
 8001830:	20000c10 	.word	0x20000c10

08001834 <Draw_Clear>:
 *                   
 * -----------------------------------------------
 * 2024/02/01        V1.0            
 ***********************************************************************/
void Draw_Clear(uint32_t dwColor)
{
 8001834:	b5f0      	push	{r4, r5, r6, r7, lr}
 8001836:	4606      	mov	r6, r0
    uint16_t wColor = RGB888_To_LCDRGB565(dwColor);

    LCD_SetWindows(0, 0, g_lcd_width-1, g_lcd_height-1);
 8001838:	2100      	movs	r1, #0
 800183a:	4f17      	ldr	r7, [pc, #92]	; (8001898 <Draw_Clear+0x64>)
    g = g >> 2;
 800183c:	f3c6 2485 	ubfx	r4, r6, #10, #6
    LCD_SetWindows(0, 0, g_lcd_width-1, g_lcd_height-1);
 8001840:	4d16      	ldr	r5, [pc, #88]	; (800189c <Draw_Clear+0x68>)
    r = r >> 3;
 8001842:	f3c6 4cc4 	ubfx	ip, r6, #19, #5
    uint16_t wColor = (r << 11) | (g << 5) | b;
 8001846:	0164      	lsls	r4, r4, #5
 8001848:	ea44 24cc 	orr.w	r4, r4, ip, lsl #11
    LCD_SetWindows(0, 0, g_lcd_width-1, g_lcd_height-1);
 800184c:	682b      	ldr	r3, [r5, #0]
 800184e:	683a      	ldr	r2, [r7, #0]
    b = b >> 2;
 8001850:	f3c6 0685 	ubfx	r6, r6, #2, #6
    uint16_t wColor = (r << 11) | (g << 5) | b;
 8001854:	4334      	orrs	r4, r6
{
 8001856:	b083      	sub	sp, #12
    LCD_SetWindows(0, 0, g_lcd_width-1, g_lcd_height-1);
 8001858:	3b01      	subs	r3, #1
 800185a:	4608      	mov	r0, r1
 800185c:	3a01      	subs	r2, #1
    uint16_t wColor = RGB888_To_LCDRGB565(dwColor);
 800185e:	ba64      	rev16	r4, r4
 8001860:	f8ad 4006 	strh.w	r4, [sp, #6]
    LCD_SetWindows(0, 0, g_lcd_width-1, g_lcd_height-1);
 8001864:	f002 fca4 	bl	80041b0 <LCD_SetWindows>
    LCD_SetDataLine();
 8001868:	f002 fb3e 	bl	8003ee8 <LCD_SetDataLine>
    
    for(uint32_t x = 0; x < g_lcd_width; x++)
 800186c:	683b      	ldr	r3, [r7, #0]
 800186e:	2600      	movs	r6, #0
 8001870:	b17b      	cbz	r3, 8001892 <Draw_Clear+0x5e>
        for(uint32_t y = 0; y < g_lcd_height; y++)
 8001872:	682b      	ldr	r3, [r5, #0]
 8001874:	2400      	movs	r4, #0
 8001876:	b143      	cbz	r3, 800188a <Draw_Clear+0x56>
            LCD_WriteDatas((uint8_t *)&wColor, 2);
 8001878:	2102      	movs	r1, #2
 800187a:	f10d 0006 	add.w	r0, sp, #6
 800187e:	f002 fb3b 	bl	8003ef8 <LCD_WriteDatas>
        for(uint32_t y = 0; y < g_lcd_height; y++)
 8001882:	682b      	ldr	r3, [r5, #0]
 8001884:	3401      	adds	r4, #1
 8001886:	42a3      	cmp	r3, r4
 8001888:	d8f6      	bhi.n	8001878 <Draw_Clear+0x44>
    for(uint32_t x = 0; x < g_lcd_width; x++)
 800188a:	683b      	ldr	r3, [r7, #0]
 800188c:	3601      	adds	r6, #1
 800188e:	42b3      	cmp	r3, r6
 8001890:	d8ef      	bhi.n	8001872 <Draw_Clear+0x3e>
}
 8001892:	b003      	add	sp, #12
 8001894:	bdf0      	pop	{r4, r5, r6, r7, pc}
 8001896:	bf00      	nop
 8001898:	20000c10 	.word	0x20000c10
 800189c:	20000c0c 	.word	0x20000c0c

080018a0 <Draw_Pixel>:
 *                   
 * -----------------------------------------------
 * 2024/02/01        V1.0            
 ***********************************************************************/
void Draw_Pixel(int x, int y, uint32_t dwColor)
{
 80018a0:	b510      	push	{r4, lr}
 80018a2:	4696      	mov	lr, r2
    g = g >> 2;
 80018a4:	f3ce 2c85 	ubfx	ip, lr, #10, #6
    r = r >> 3;
 80018a8:	f3ce 44c4 	ubfx	r4, lr, #19, #5
    uint16_t wColor = (r << 11) | (g << 5) | b;
 80018ac:	ea4f 1c4c 	mov.w	ip, ip, lsl #5
    b = b >> 2;
 80018b0:	f3ce 0e85 	ubfx	lr, lr, #2, #6
    uint16_t wColor = (r << 11) | (g << 5) | b;
 80018b4:	ea4c 2cc4 	orr.w	ip, ip, r4, lsl #11
 80018b8:	ea4c 0c0e 	orr.w	ip, ip, lr
{
 80018bc:	b082      	sub	sp, #8
 80018be:	4602      	mov	r2, r0
 80018c0:	460b      	mov	r3, r1
    uint16_t wColor = RGB888_To_LCDRGB565(dwColor);
 80018c2:	fa9c fc9c 	rev16.w	ip, ip
 80018c6:	f8ad c006 	strh.w	ip, [sp, #6]
    LCD_SetWindows(x, y, x + ptBitMap->width - 1, y + ptBitMap->height - 1);
 80018ca:	f002 fc71 	bl	80041b0 <LCD_SetWindows>
    LCD_SetDataLine();
 80018ce:	f002 fb0b 	bl	8003ee8 <LCD_SetDataLine>
    LCD_WriteDatas(ptBitMap->datas, ptBitMap->height * ptBitMap->width * 2);
 80018d2:	2102      	movs	r1, #2
 80018d4:	f10d 0006 	add.w	r0, sp, #6
 80018d8:	f002 fb0e 	bl	8003ef8 <LCD_WriteDatas>
    bitmap.width = 1;
    bitmap.height = 1;
    bitmap.datas = (uint8_t *)&wColor;
    
    Draw_Region(x, y, &bitmap);
}
 80018dc:	b002      	add	sp, #8
 80018de:	bd10      	pop	{r4, pc}

080018e0 <Draw_ASCII>:
 *                   
 * -----------------------------------------------
 * 2024/02/01        V1.0            
 ***********************************************************************/
int Draw_ASCII(uint32_t x, uint32_t y, char c, uint32_t front_color, uint32_t back_color)
{
 80018e0:	e92d 41f0 	stmdb	sp!, {r4, r5, r6, r7, r8, lr}
 80018e4:	b0c0      	sub	sp, #256	; 0x100
 80018e6:	466e      	mov	r6, sp
 80018e8:	9c46      	ldr	r4, [sp, #280]	; 0x118
 80018ea:	f50d 7880 	add.w	r8, sp, #256	; 0x100
    g = g >> 2;
 80018ee:	f3c4 2585 	ubfx	r5, r4, #10, #6
    r = r >> 3;
 80018f2:	f3c4 47c4 	ubfx	r7, r4, #19, #5
    uint16_t wColor = (r << 11) | (g << 5) | b;
 80018f6:	016d      	lsls	r5, r5, #5
 80018f8:	ea45 25c7 	orr.w	r5, r5, r7, lsl #11
    b = b >> 2;
 80018fc:	f3c4 0485 	ubfx	r4, r4, #2, #6
 8001900:	4f1a      	ldr	r7, [pc, #104]	; (800196c <Draw_ASCII+0x8c>)
    uint16_t wColor = (r << 11) | (g << 5) | b;
 8001902:	4325      	orrs	r5, r4
    g = g >> 2;
 8001904:	f3c3 2485 	ubfx	r4, r3, #10, #6
 8001908:	eb07 1702 	add.w	r7, r7, r2, lsl #4
    uint16_t wColor = (r << 11) | (g << 5) | b;
 800190c:	0164      	lsls	r4, r4, #5
    r = r >> 3;
 800190e:	f3c3 42c4 	ubfx	r2, r3, #19, #5
    uint16_t wColor = (r << 11) | (g << 5) | b;
 8001912:	ea44 24c2 	orr.w	r4, r4, r2, lsl #11
    b = b >> 2;
 8001916:	f3c3 0385 	ubfx	r3, r3, #2, #6
    uint16_t wColor = (r << 11) | (g << 5) | b;
 800191a:	431c      	orrs	r4, r3
 800191c:	ba6d      	rev16	r5, r5
 800191e:	ba64      	rev16	r4, r4
 8001920:	b2ad      	uxth	r5, r5
    wColor = (wColor >> 8) | (wColor << 8);
 8001922:	b2a4      	uxth	r4, r4
    for (i = 0; i < 16; i++)
    {
        data = fontdata_8x16[c*16+i];
        for (bit = 7; bit >= 0; bit--)
        {
            if (data & (1<<bit))
 8001924:	46b4      	mov	ip, r6
        for (bit = 7; bit >= 0; bit--)
 8001926:	2307      	movs	r3, #7
        data = fontdata_8x16[c*16+i];
 8001928:	f817 2b01 	ldrb.w	r2, [r7], #1
            if (data & (1<<bit))
 800192c:	fa42 fe03 	asr.w	lr, r2, r3
 8001930:	f01e 0f01 	tst.w	lr, #1
 8001934:	bf14      	ite	ne
 8001936:	46a6      	movne	lr, r4
 8001938:	46ae      	moveq	lr, r5
        for (bit = 7; bit >= 0; bit--)
 800193a:	3b01      	subs	r3, #1
 800193c:	f1b3 3fff 	cmp.w	r3, #4294967295	; 0xffffffff
            else
            {
                color = back_color;
            }
            
            buf[i * 8 + (7-bit)] = color;
 8001940:	f82c eb02 	strh.w	lr, [ip], #2
        for (bit = 7; bit >= 0; bit--)
 8001944:	d1f2      	bne.n	800192c <Draw_ASCII+0x4c>
    for (i = 0; i < 16; i++)
 8001946:	3610      	adds	r6, #16
 8001948:	4546      	cmp	r6, r8
 800194a:	d1eb      	bne.n	8001924 <Draw_ASCII+0x44>
    LCD_SetWindows(x, y, x + ptBitMap->width - 1, y + ptBitMap->height - 1);
 800194c:	f101 030f 	add.w	r3, r1, #15
 8001950:	1dc2      	adds	r2, r0, #7
 8001952:	f002 fc2d 	bl	80041b0 <LCD_SetWindows>
    LCD_SetDataLine();
 8001956:	f002 fac7 	bl	8003ee8 <LCD_SetDataLine>
    LCD_WriteDatas(ptBitMap->datas, ptBitMap->height * ptBitMap->width * 2);
 800195a:	f44f 7180 	mov.w	r1, #256	; 0x100
 800195e:	4668      	mov	r0, sp
 8001960:	f002 faca 	bl	8003ef8 <LCD_WriteDatas>
    bitmap.datas = (uint8_t *)buf;
    
    Draw_Region(x, y, &bitmap);

    return 8; /* 8 */
}
 8001964:	2008      	movs	r0, #8
 8001966:	b040      	add	sp, #256	; 0x100
 8001968:	e8bd 81f0 	ldmia.w	sp!, {r4, r5, r6, r7, r8, pc}
 800196c:	0800c6bc 	.word	0x0800c6bc

08001970 <Draw_String>:
 *                   
 * -----------------------------------------------
 * 2024/02/01        V1.0            
 ***********************************************************************/
int Draw_String(uint32_t x, uint32_t y, char *str, uint32_t front_color, uint32_t back_color)
{
 8001970:	e92d 4ff0 	stmdb	sp!, {r4, r5, r6, r7, r8, r9, sl, fp, lr}
 8001974:	468b      	mov	fp, r1
 8001976:	469a      	mov	sl, r3
    size_t i;
    int line_width = 0;
 8001978:	2700      	movs	r7, #0
{
 800197a:	b085      	sub	sp, #20
 800197c:	4605      	mov	r5, r0
    for (i = 0; i < strlen(str); i++)
 800197e:	4610      	mov	r0, r2
{
 8001980:	4616      	mov	r6, r2
    for (i = 0; i < strlen(str); i++)
 8001982:	463c      	mov	r4, r7
 8001984:	f00a fc2c 	bl	800c1e0 <strlen>
            if (x >= 8)
                x -= 8;
        }
        else
        {
            if (x + 8 >= g_lcd_width)
 8001988:	f8df 9078 	ldr.w	r9, [pc, #120]	; 8001a04 <Draw_String+0x94>
 800198c:	4653      	mov	r3, sl
            {
                x = 0;
                y += 16;
            }

            if (y + 16 >= g_lcd_height)
 800198e:	f8df 8078 	ldr.w	r8, [pc, #120]	; 8001a08 <Draw_String+0x98>
 8001992:	46da      	mov	sl, fp
 8001994:	f8dd b038 	ldr.w	fp, [sp, #56]	; 0x38
    for (i = 0; i < strlen(str); i++)
 8001998:	e022      	b.n	80019e0 <Draw_String+0x70>
        else if (str[i] == '\n')
 800199a:	2a0a      	cmp	r2, #10
 800199c:	d027      	beq.n	80019ee <Draw_String+0x7e>
        else if (str[i] == '\b')
 800199e:	2a08      	cmp	r2, #8
 80019a0:	d028      	beq.n	80019f4 <Draw_String+0x84>
            if (x + 8 >= g_lcd_width)
 80019a2:	f8d9 1000 	ldr.w	r1, [r9]
 80019a6:	f105 0008 	add.w	r0, r5, #8
 80019aa:	4288      	cmp	r0, r1
                y += 16;
 80019ac:	bf28      	it	cs
 80019ae:	f10a 0a10 	addcs.w	sl, sl, #16
            if (y + 16 >= g_lcd_height)
 80019b2:	f8d8 1000 	ldr.w	r1, [r8]
 80019b6:	f10a 0010 	add.w	r0, sl, #16
                x = 0;
 80019ba:	bf28      	it	cs
 80019bc:	2500      	movcs	r5, #0
            if (y + 16 >= g_lcd_height)
 80019be:	4288      	cmp	r0, r1
 80019c0:	d21c      	bcs.n	80019fc <Draw_String+0x8c>
                return line_width;

            line_width += Draw_ASCII(x, y, str[i], front_color, back_color);
 80019c2:	4651      	mov	r1, sl
 80019c4:	4628      	mov	r0, r5
 80019c6:	f8cd b000 	str.w	fp, [sp]
 80019ca:	9303      	str	r3, [sp, #12]
 80019cc:	f7ff ff88 	bl	80018e0 <Draw_ASCII>
 80019d0:	4602      	mov	r2, r0
    for (i = 0; i < strlen(str); i++)
 80019d2:	4630      	mov	r0, r6
            line_width += Draw_ASCII(x, y, str[i], front_color, back_color);
 80019d4:	4417      	add	r7, r2
    for (i = 0; i < strlen(str); i++)
 80019d6:	f00a fc03 	bl	800c1e0 <strlen>
 80019da:	9b03      	ldr	r3, [sp, #12]
            x += 8;
 80019dc:	3508      	adds	r5, #8
    for (i = 0; i < strlen(str); i++)
 80019de:	3401      	adds	r4, #1
 80019e0:	4284      	cmp	r4, r0
 80019e2:	d20b      	bcs.n	80019fc <Draw_String+0x8c>
        if (str[i] == '\r')
 80019e4:	5d32      	ldrb	r2, [r6, r4]
 80019e6:	2a0d      	cmp	r2, #13
 80019e8:	d1d7      	bne.n	800199a <Draw_String+0x2a>
            x = 0;
 80019ea:	2500      	movs	r5, #0
 80019ec:	e7f7      	b.n	80019de <Draw_String+0x6e>
            y += 16;
 80019ee:	f10a 0a10 	add.w	sl, sl, #16
 80019f2:	e7f4      	b.n	80019de <Draw_String+0x6e>
            if (x >= 8)
 80019f4:	2d07      	cmp	r5, #7
 80019f6:	d9f2      	bls.n	80019de <Draw_String+0x6e>
                x -= 8;
 80019f8:	3d08      	subs	r5, #8
 80019fa:	e7f0      	b.n	80019de <Draw_String+0x6e>
        }
    }

    return line_width;
}
 80019fc:	4638      	mov	r0, r7
 80019fe:	b005      	add	sp, #20
 8001a00:	e8bd 8ff0 	ldmia.w	sp!, {r4, r5, r6, r7, r8, r9, sl, fp, pc}
 8001a04:	20000c10 	.word	0x20000c10
 8001a08:	20000c0c 	.word	0x20000c0c

08001a0c <Draw_Line>:
 *                   
 * -----------------------------------------------
 * 2024/02/01        V1.0            
 ***********************************************************************/
void Draw_Line(uint32_t x1, uint32_t y1, uint32_t x2, uint32_t y2, uint32_t front_color)
{
 8001a0c:	e92d 4ff0 	stmdb	sp!, {r4, r5, r6, r7, r8, r9, sl, fp, lr}
    uint32_t t;
    uint32_t yerr=0,delta_x,delta_y;
	uint32_t xerr = 0;
 8001a10:	2400      	movs	r4, #0
{
 8001a12:	b087      	sub	sp, #28
 8001a14:	9e10      	ldr	r6, [sp, #64]	; 0x40
    int incx,incy,uRow,uCol; 
    delta_x=x2-x1; //
    delta_y=y2-y1; 
    uRow=x1; 
    uCol=y1; 
    if(delta_x>0)incx=1; //
 8001a16:	ebb2 0900 	subs.w	r9, r2, r0
    g = g >> 2;
 8001a1a:	f3c6 2585 	ubfx	r5, r6, #10, #6
    r = r >> 3;
 8001a1e:	f3c6 47c4 	ubfx	r7, r6, #19, #5
    uint16_t wColor = (r << 11) | (g << 5) | b;
 8001a22:	ea4f 1545 	mov.w	r5, r5, lsl #5
    uRow=x1; 
 8001a26:	4602      	mov	r2, r0
    uint16_t wColor = (r << 11) | (g << 5) | b;
 8001a28:	ea45 25c7 	orr.w	r5, r5, r7, lsl #11
    if(delta_x>0)incx=1; //
 8001a2c:	bf14      	ite	ne
 8001a2e:	2001      	movne	r0, #1
 8001a30:	4620      	moveq	r0, r4
    b = b >> 2;
 8001a32:	f3c6 0685 	ubfx	r6, r6, #2, #6
    else if(delta_x==0)incx=0;//
    else {incx=-1;delta_x=-delta_x;} 
    if(delta_y>0)incy=1; 
 8001a36:	ebb3 0801 	subs.w	r8, r3, r1
    uint16_t wColor = (r << 11) | (g << 5) | b;
 8001a3a:	ea45 0506 	orr.w	r5, r5, r6
    uCol=y1; 
 8001a3e:	460b      	mov	r3, r1
    if(delta_y>0)incy=1; 
 8001a40:	bf14      	ite	ne
 8001a42:	2101      	movne	r1, #1
 8001a44:	4621      	moveq	r1, r4
 8001a46:	45c1      	cmp	r9, r8
 8001a48:	464e      	mov	r6, r9
 8001a4a:	ba6d      	rev16	r5, r5
 8001a4c:	bf38      	it	cc
 8001a4e:	4646      	movcc	r6, r8
 8001a50:	fa1f fb85 	uxth.w	fp, r5
    else if(delta_y==0)incy=0;//
    else{incy=-1;delta_y=-delta_y;} 
    if( delta_x>delta_y)distance=delta_x; //
    else distance=delta_y; 
    for(t=0;t<=distance+1;t++ )//
 8001a54:	4627      	mov	r7, r4
    uint32_t yerr=0,delta_x,delta_y;
 8001a56:	4625      	mov	r5, r4
    if(delta_x>0)incx=1; //
 8001a58:	9002      	str	r0, [sp, #8]
    if(delta_y>0)incy=1; 
 8001a5a:	9103      	str	r1, [sp, #12]
    for(t=0;t<=distance+1;t++ )//
 8001a5c:	f106 0a01 	add.w	sl, r6, #1
    LCD_SetWindows(x, y, x + ptBitMap->width - 1, y + ptBitMap->height - 1);
 8001a60:	4619      	mov	r1, r3
 8001a62:	4610      	mov	r0, r2
 8001a64:	9301      	str	r3, [sp, #4]
 8001a66:	9200      	str	r2, [sp, #0]
    uint16_t wColor = RGB888_To_LCDRGB565(dwColor);
 8001a68:	f8ad b016 	strh.w	fp, [sp, #22]
    {  
        Draw_Pixel(uRow, uCol, front_color);//
        xerr+=delta_x ; 
 8001a6c:	444c      	add	r4, r9
    LCD_SetWindows(x, y, x + ptBitMap->width - 1, y + ptBitMap->height - 1);
 8001a6e:	f002 fb9f 	bl	80041b0 <LCD_SetWindows>
    LCD_SetDataLine();
 8001a72:	f002 fa39 	bl	8003ee8 <LCD_SetDataLine>
    LCD_WriteDatas(ptBitMap->datas, ptBitMap->height * ptBitMap->width * 2);
 8001a76:	2102      	movs	r1, #2
 8001a78:	f10d 0016 	add.w	r0, sp, #22
 8001a7c:	f002 fa3c 	bl	8003ef8 <LCD_WriteDatas>
        yerr+=delta_y ; 
        if(xerr>distance) 
 8001a80:	e9dd 2300 	ldrd	r2, r3, [sp]
 8001a84:	42a6      	cmp	r6, r4
    for(t=0;t<=distance+1;t++ )//
 8001a86:	f107 0701 	add.w	r7, r7, #1
        yerr+=delta_y ; 
 8001a8a:	4445      	add	r5, r8
        if(xerr>distance) 
 8001a8c:	d202      	bcs.n	8001a94 <Draw_Line+0x88>
        { 
            xerr-=distance; 
            uRow+=incx; 
 8001a8e:	9902      	ldr	r1, [sp, #8]
            xerr-=distance; 
 8001a90:	1ba4      	subs	r4, r4, r6
            uRow+=incx; 
 8001a92:	440a      	add	r2, r1
        } 
        if(yerr>distance) 
 8001a94:	42ae      	cmp	r6, r5
 8001a96:	d202      	bcs.n	8001a9e <Draw_Line+0x92>
        { 
            yerr-=distance; 
            uCol+=incy; 
 8001a98:	9903      	ldr	r1, [sp, #12]
            yerr-=distance; 
 8001a9a:	1bad      	subs	r5, r5, r6
            uCol+=incy; 
 8001a9c:	440b      	add	r3, r1
    for(t=0;t<=distance+1;t++ )//
 8001a9e:	4557      	cmp	r7, sl
 8001aa0:	d9de      	bls.n	8001a60 <Draw_Line+0x54>
        } 
    }  
} 
 8001aa2:	b007      	add	sp, #28
 8001aa4:	e8bd 8ff0 	ldmia.w	sp!, {r4, r5, r6, r7, r8, r9, sl, fp, pc}

08001aa8 <Draw_Rectangle>:
 *                   
 * -----------------------------------------------
 * 2024/02/01        V1.0            
 ***********************************************************************/
void Draw_Rectangle(uint32_t x1, uint32_t y1, uint32_t x2, uint32_t y2, uint32_t front_color)
{
 8001aa8:	e92d 41f0 	stmdb	sp!, {r4, r5, r6, r7, r8, lr}
 8001aac:	461c      	mov	r4, r3
 8001aae:	4606      	mov	r6, r0
 8001ab0:	460d      	mov	r5, r1
 8001ab2:	4690      	mov	r8, r2
 8001ab4:	b082      	sub	sp, #8
 8001ab6:	9f08      	ldr	r7, [sp, #32]
    Draw_Line(x1,y1,x2,y1,front_color);
 8001ab8:	460b      	mov	r3, r1
 8001aba:	9700      	str	r7, [sp, #0]
 8001abc:	f7ff ffa6 	bl	8001a0c <Draw_Line>
    Draw_Line(x1,y1,x1,y2,front_color);
 8001ac0:	4623      	mov	r3, r4
 8001ac2:	4632      	mov	r2, r6
 8001ac4:	4629      	mov	r1, r5
 8001ac6:	4630      	mov	r0, r6
 8001ac8:	9700      	str	r7, [sp, #0]
 8001aca:	f7ff ff9f 	bl	8001a0c <Draw_Line>
    Draw_Line(x1,y2,x2,y2,front_color);
 8001ace:	4630      	mov	r0, r6
 8001ad0:	4623      	mov	r3, r4
 8001ad2:	4642      	mov	r2, r8
 8001ad4:	4621      	mov	r1, r4
 8001ad6:	9700      	str	r7, [sp, #0]
 8001ad8:	f7ff ff98 	bl	8001a0c <Draw_Line>
    Draw_Line(x2,y1,x2,y2,front_color);
 8001adc:	4623      	mov	r3, r4
 8001ade:	4642      	mov	r2, r8
 8001ae0:	4629      	mov	r1, r5
 8001ae2:	4640      	mov	r0, r8
 8001ae4:	9708      	str	r7, [sp, #32]
}
 8001ae6:	b002      	add	sp, #8
 8001ae8:	e8bd 41f0 	ldmia.w	sp!, {r4, r5, r6, r7, r8, lr}
    Draw_Line(x2,y1,x2,y2,front_color);
 8001aec:	f7ff bf8e 	b.w	8001a0c <Draw_Line>

08001af0 <Draw_Circle>:
 *                   
 * -----------------------------------------------
 * 2024/02/01        V1.0            
 ***********************************************************************/
void Draw_Circle(uint32_t x0, uint32_t y0, uint32_t r, uint32_t front_color)
{
 8001af0:	e92d 4ff0 	stmdb	sp!, {r4, r5, r6, r7, r8, r9, sl, fp, lr}
 8001af4:	461d      	mov	r5, r3
    int a,b;
    int di;
    a=0;b=r;      
    di=3-(r<<1);             //
 8001af6:	0053      	lsls	r3, r2, #1
{
 8001af8:	b089      	sub	sp, #36	; 0x24
    di=3-(r<<1);             //
 8001afa:	f1c3 0303 	rsb	r3, r3, #3
    while(a<=b)
 8001afe:	2a00      	cmp	r2, #0
{
 8001b00:	e9cd 0100 	strd	r0, r1, [sp]
    di=3-(r<<1);             //
 8001b04:	9302      	str	r3, [sp, #8]
    while(a<=b)
 8001b06:	db71      	blt.n	8001bec <Draw_Circle+0xfc>
    g = g >> 2;
 8001b08:	f3c5 2385 	ubfx	r3, r5, #10, #6
 8001b0c:	4616      	mov	r6, r2
    uint16_t wColor = (r << 11) | (g << 5) | b;
 8001b0e:	015b      	lsls	r3, r3, #5
    r = r >> 3;
 8001b10:	f3c5 42c4 	ubfx	r2, r5, #19, #5
    uint16_t wColor = (r << 11) | (g << 5) | b;
 8001b14:	ea43 23c2 	orr.w	r3, r3, r2, lsl #11
    b = b >> 2;
 8001b18:	f3c5 0285 	ubfx	r2, r5, #2, #6
    uint16_t wColor = (r << 11) | (g << 5) | b;
 8001b1c:	4313      	orrs	r3, r2
 8001b1e:	ba5b      	rev16	r3, r3
 8001b20:	b29b      	uxth	r3, r3
    a=0;b=r;      
 8001b22:	2400      	movs	r4, #0
 8001b24:	9305      	str	r3, [sp, #20]
 8001b26:	e008      	b.n	8001b3a <Draw_Circle+0x4a>
        a++;
        //Bresenham
        if(di<0)di +=4*a+6;   
        else
        {
            di+=10+4*(a-b);   
 8001b28:	9a02      	ldr	r2, [sp, #8]
 8001b2a:	1ba3      	subs	r3, r4, r6
 8001b2c:	eb02 0383 	add.w	r3, r2, r3, lsl #2
            b--;
 8001b30:	3e01      	subs	r6, #1
            di+=10+4*(a-b);   
 8001b32:	330a      	adds	r3, #10
    while(a<=b)
 8001b34:	42a6      	cmp	r6, r4
            di+=10+4*(a-b);   
 8001b36:	9302      	str	r3, [sp, #8]
    while(a<=b)
 8001b38:	db58      	blt.n	8001bec <Draw_Circle+0xfc>
        Draw_Pixel(x0+a, y0-b, front_color);             //5
 8001b3a:	9f00      	ldr	r7, [sp, #0]
 8001b3c:	9b01      	ldr	r3, [sp, #4]
 8001b3e:	eb07 0904 	add.w	r9, r7, r4
 8001b42:	eba3 0b06 	sub.w	fp, r3, r6
    uint16_t wColor = RGB888_To_LCDRGB565(dwColor);
 8001b46:	9f05      	ldr	r7, [sp, #20]
    LCD_SetWindows(x, y, x + ptBitMap->width - 1, y + ptBitMap->height - 1);
 8001b48:	464a      	mov	r2, r9
 8001b4a:	4659      	mov	r1, fp
 8001b4c:	4648      	mov	r0, r9
 8001b4e:	465b      	mov	r3, fp
    uint16_t wColor = RGB888_To_LCDRGB565(dwColor);
 8001b50:	f8ad 701e 	strh.w	r7, [sp, #30]
    LCD_SetWindows(x, y, x + ptBitMap->width - 1, y + ptBitMap->height - 1);
 8001b54:	f002 fb2c 	bl	80041b0 <LCD_SetWindows>
    LCD_SetDataLine();
 8001b58:	9b01      	ldr	r3, [sp, #4]
 8001b5a:	eba3 0a04 	sub.w	sl, r3, r4
 8001b5e:	f002 f9c3 	bl	8003ee8 <LCD_SetDataLine>
        Draw_Pixel(x0+b, y0-a, front_color);             //0           
 8001b62:	9f00      	ldr	r7, [sp, #0]
    LCD_WriteDatas(ptBitMap->datas, ptBitMap->height * ptBitMap->width * 2);
 8001b64:	2102      	movs	r1, #2
        Draw_Pixel(x0+b, y0-a, front_color);             //0           
 8001b66:	19f7      	adds	r7, r6, r7
    LCD_WriteDatas(ptBitMap->datas, ptBitMap->height * ptBitMap->width * 2);
 8001b68:	f10d 001e 	add.w	r0, sp, #30
 8001b6c:	f002 f9c4 	bl	8003ef8 <LCD_WriteDatas>
        Draw_Pixel(x0+b, y0-a, front_color);             //0           
 8001b70:	eb0a 0344 	add.w	r3, sl, r4, lsl #1
 8001b74:	4638      	mov	r0, r7
 8001b76:	462a      	mov	r2, r5
 8001b78:	4651      	mov	r1, sl
 8001b7a:	9304      	str	r3, [sp, #16]
 8001b7c:	9703      	str	r7, [sp, #12]
 8001b7e:	f7ff fe8f 	bl	80018a0 <Draw_Pixel>
        Draw_Pixel(x0+b, y0+a, front_color);             //4               
 8001b82:	9b04      	ldr	r3, [sp, #16]
        Draw_Pixel(x0+a, y0+b, front_color);             //6 
 8001b84:	9a01      	ldr	r2, [sp, #4]
        Draw_Pixel(x0+b, y0+a, front_color);             //4               
 8001b86:	4619      	mov	r1, r3
        Draw_Pixel(x0+a, y0+b, front_color);             //6 
 8001b88:	eb06 0802 	add.w	r8, r6, r2
        Draw_Pixel(x0+b, y0+a, front_color);             //4               
 8001b8c:	9803      	ldr	r0, [sp, #12]
 8001b8e:	462a      	mov	r2, r5
 8001b90:	f7ff fe86 	bl	80018a0 <Draw_Pixel>
        Draw_Pixel(x0+a, y0+b, front_color);             //6 
 8001b94:	0067      	lsls	r7, r4, #1
 8001b96:	4641      	mov	r1, r8
 8001b98:	4648      	mov	r0, r9
 8001b9a:	462a      	mov	r2, r5
 8001b9c:	eba9 0707 	sub.w	r7, r9, r7
 8001ba0:	f8cd 800c 	str.w	r8, [sp, #12]
 8001ba4:	f7ff fe7c 	bl	80018a0 <Draw_Pixel>
        Draw_Pixel(x0-b, y0+a, front_color);             
 8001ba8:	9b00      	ldr	r3, [sp, #0]
        Draw_Pixel(x0-a, y0+b, front_color);             //1       
 8001baa:	462a      	mov	r2, r5
 8001bac:	4638      	mov	r0, r7
 8001bae:	9903      	ldr	r1, [sp, #12]
        Draw_Pixel(x0-b, y0+a, front_color);             
 8001bb0:	eba3 0806 	sub.w	r8, r3, r6
        Draw_Pixel(x0-a, y0+b, front_color);             //1       
 8001bb4:	f7ff fe74 	bl	80018a0 <Draw_Pixel>
        Draw_Pixel(x0-b, y0+a, front_color);             
 8001bb8:	9b04      	ldr	r3, [sp, #16]
 8001bba:	462a      	mov	r2, r5
 8001bbc:	4619      	mov	r1, r3
 8001bbe:	4640      	mov	r0, r8
 8001bc0:	f7ff fe6e 	bl	80018a0 <Draw_Pixel>
        Draw_Pixel(x0-a, y0-b, front_color);             //2             
 8001bc4:	462a      	mov	r2, r5
 8001bc6:	4659      	mov	r1, fp
 8001bc8:	4638      	mov	r0, r7
 8001bca:	f7ff fe69 	bl	80018a0 <Draw_Pixel>
        Draw_Pixel(x0-b, y0-a, front_color);             //7                 
 8001bce:	462a      	mov	r2, r5
 8001bd0:	4651      	mov	r1, sl
 8001bd2:	4640      	mov	r0, r8
 8001bd4:	f7ff fe64 	bl	80018a0 <Draw_Pixel>
        if(di<0)di +=4*a+6;   
 8001bd8:	9b02      	ldr	r3, [sp, #8]
        a++;
 8001bda:	3401      	adds	r4, #1
        if(di<0)di +=4*a+6;   
 8001bdc:	2b00      	cmp	r3, #0
 8001bde:	eb03 0384 	add.w	r3, r3, r4, lsl #2
 8001be2:	daa1      	bge.n	8001b28 <Draw_Circle+0x38>
 8001be4:	3306      	adds	r3, #6
    while(a<=b)
 8001be6:	42a6      	cmp	r6, r4
        if(di<0)di +=4*a+6;   
 8001be8:	9302      	str	r3, [sp, #8]
    while(a<=b)
 8001bea:	daa6      	bge.n	8001b3a <Draw_Circle+0x4a>
        }                           
    }
} 
 8001bec:	b009      	add	sp, #36	; 0x24
 8001bee:	e8bd 8ff0 	ldmia.w	sp!, {r4, r5, r6, r7, r8, r9, sl, fp, pc}
 8001bf2:	bf00      	nop

08001bf4 <Draw_ChineseFont>:
 *                   
 * -----------------------------------------------
 * 2024/02/01        V1.0            
 ***********************************************************************/
void Draw_ChineseFont(uint32_t x, uint32_t y, char *cn, uint32_t front_color, uint32_t back_color)
{
 8001bf4:	e92d 4ff0 	stmdb	sp!, {r4, r5, r6, r7, r8, r9, sl, fp, lr}
 8001bf8:	ed2d 8b02 	vpush	{d8}
    uint32_t x0=x;
    uint32_t y0=y;
    static uint8_t *buf;
    BitMap bitmap; 

    if (!buf)
 8001bfc:	4c5d      	ldr	r4, [pc, #372]	; (8001d74 <Draw_ChineseFont+0x180>)
{
 8001bfe:	b083      	sub	sp, #12
    if (!buf)
 8001c00:	6824      	ldr	r4, [r4, #0]
{
 8001c02:	4606      	mov	r6, r0
    if (!buf)
 8001c04:	9400      	str	r4, [sp, #0]
{
 8001c06:	461c      	mov	r4, r3
    if (!buf)
 8001c08:	9b00      	ldr	r3, [sp, #0]
{
 8001c0a:	460f      	mov	r7, r1
 8001c0c:	4615      	mov	r5, r2
 8001c0e:	f8dd 8038 	ldr.w	r8, [sp, #56]	; 0x38
    if (!buf)
 8001c12:	2b00      	cmp	r3, #0
 8001c14:	f000 80a4 	beq.w	8001d60 <Draw_ChineseFont+0x16c>
 8001c18:	1ceb      	adds	r3, r5, #3
    g = g >> 2;
 8001c1a:	f3c8 2a85 	ubfx	sl, r8, #10, #6
 8001c1e:	f3c4 2985 	ubfx	r9, r4, #10, #6
 8001c22:	9300      	str	r3, [sp, #0]
    uint16_t wColor = (r << 11) | (g << 5) | b;
 8001c24:	ea4f 1a4a 	mov.w	sl, sl, lsl #5
    r = r >> 3;
 8001c28:	f3c8 43c4 	ubfx	r3, r8, #19, #5
    uint16_t wColor = (r << 11) | (g << 5) | b;
 8001c2c:	ea4a 2ac3 	orr.w	sl, sl, r3, lsl #11
 8001c30:	ea4f 1949 	mov.w	r9, r9, lsl #5
    r = r >> 3;
 8001c34:	f3c4 43c4 	ubfx	r3, r4, #19, #5
    uint16_t wColor = (r << 11) | (g << 5) | b;
 8001c38:	ea49 29c3 	orr.w	r9, r9, r3, lsl #11
    LCD_SetWindows(x, y, x + ptBitMap->width - 1, y + ptBitMap->height - 1);
 8001c3c:	f107 031c 	add.w	r3, r7, #28
    uint16_t wColor = (r << 11) | (g << 5) | b;
 8001c40:	463d      	mov	r5, r7
    LCD_SetWindows(x, y, x + ptBitMap->width - 1, y + ptBitMap->height - 1);
 8001c42:	ee08 3a10 	vmov	s16, r3
    b = b >> 2;
 8001c46:	f3c8 0885 	ubfx	r8, r8, #2, #6
 8001c4a:	f3c4 0485 	ubfx	r4, r4, #2, #6
    uint16_t wColor = (r << 11) | (g << 5) | b;
 8001c4e:	ea4a 0a08 	orr.w	sl, sl, r8
 8001c52:	ea49 0904 	orr.w	r9, r9, r4
 8001c56:	fa9a fa9a 	rev16.w	sl, sl
 8001c5a:	fa99 f999 	rev16.w	r9, r9
 8001c5e:	fa1f fa8a 	uxth.w	sl, sl
 8001c62:	fa1f f989 	uxth.w	r9, r9
        buf = malloc(32*29*2);
        if (!buf)
            return;
    }
    
    while (*cn != '\0')
 8001c66:	9b00      	ldr	r3, [sp, #0]
 8001c68:	f813 1c03 	ldrb.w	r1, [r3, #-3]
 8001c6c:	2900      	cmp	r1, #0
 8001c6e:	d072      	beq.n	8001d56 <Draw_ChineseFont+0x162>
    {
        for (wordNum=0; CnChar32x29[wordNum].Index[0]; wordNum++)
 8001c70:	4b41      	ldr	r3, [pc, #260]	; (8001d78 <Draw_ChineseFont+0x184>)
 8001c72:	4634      	mov	r4, r6
 8001c74:	781b      	ldrb	r3, [r3, #0]
 8001c76:	2b00      	cmp	r3, #0
 8001c78:	d05d      	beq.n	8001d36 <Draw_ChineseFont+0x142>
 8001c7a:	f8df b104 	ldr.w	fp, [pc, #260]	; 8001d80 <Draw_ChineseFont+0x18c>
    LCD_SetWindows(x, y, x + ptBitMap->width - 1, y + ptBitMap->height - 1);
 8001c7e:	f106 021f 	add.w	r2, r6, #31
 8001c82:	e008      	b.n	8001c96 <Draw_ChineseFont+0xa2>
        for (wordNum=0; CnChar32x29[wordNum].Index[0]; wordNum++)
 8001c84:	f89b 3001 	ldrb.w	r3, [fp, #1]
 8001c88:	f10b 0b78 	add.w	fp, fp, #120	; 0x78
 8001c8c:	2b00      	cmp	r3, #0
 8001c8e:	d052      	beq.n	8001d36 <Draw_ChineseFont+0x142>
        {   //wordNumCnChar32x29
            if ((CnChar32x29[wordNum].Index[0]==*cn)
 8001c90:	9900      	ldr	r1, [sp, #0]
 8001c92:	f811 1c03 	ldrb.w	r1, [r1, #-3]
 8001c96:	4299      	cmp	r1, r3
 8001c98:	d1f4      	bne.n	8001c84 <Draw_ChineseFont+0x90>
                 &&(CnChar32x29[wordNum].Index[1]==*(cn+1))
 8001c9a:	9b00      	ldr	r3, [sp, #0]
 8001c9c:	f81b 1c76 	ldrb.w	r1, [fp, #-118]
 8001ca0:	f813 3c02 	ldrb.w	r3, [r3, #-2]
 8001ca4:	4299      	cmp	r1, r3
 8001ca6:	d1ed      	bne.n	8001c84 <Draw_ChineseFont+0x90>
                 &&(CnChar32x29[wordNum].Index[2]==*(cn+2)))
 8001ca8:	9b00      	ldr	r3, [sp, #0]
 8001caa:	f81b 1c75 	ldrb.w	r1, [fp, #-117]
 8001cae:	f813 3c01 	ldrb.w	r3, [r3, #-1]
 8001cb2:	4299      	cmp	r1, r3
 8001cb4:	d1e6      	bne.n	8001c84 <Draw_ChineseFont+0x90>
                            Draw_Pixel_In_Buf(buf, x-x0, y-y0, 32, 29, front_color);
                        }                       
                        else
                        {
                            //Draw_Pixel(x,y,back_color);
                            Draw_Pixel_In_Buf(buf, x-x0, y-y0, 32, 29, back_color);
 8001cb6:	4b2f      	ldr	r3, [pc, #188]	; (8001d74 <Draw_ChineseFont+0x180>)
 8001cb8:	f1ab 0e74 	sub.w	lr, fp, #116	; 0x74
 8001cbc:	f8d3 8000 	ldr.w	r8, [r3]
                    color=CnChar32x29[wordNum].Msk[i];
 8001cc0:	f04f 0c08 	mov.w	ip, #8
 8001cc4:	f81e 0f01 	ldrb.w	r0, [lr, #1]!
                    for(j=0;j<8;j++) 
 8001cc8:	e010      	b.n	8001cec <Draw_ChineseFont+0xf8>
    tmpBuf[y*w + x] = dwColor;    
 8001cca:	f828 9013 	strh.w	r9, [r8, r3, lsl #1]
                        } 
                        color<<=1;
                        x++;
 8001cce:	3401      	adds	r4, #1
                        if((x-x0)==32)
 8001cd0:	1ba3      	subs	r3, r4, r6
 8001cd2:	2b20      	cmp	r3, #32
                        color<<=1;
 8001cd4:	ea4f 0040 	mov.w	r0, r0, lsl #1
                        if((x-x0)==32)
 8001cd8:	d105      	bne.n	8001ce6 <Draw_ChineseFont+0xf2>
                        {
                            x=x0;
                            y++;
 8001cda:	3501      	adds	r5, #1
                            if((y-y0)==29)
 8001cdc:	1beb      	subs	r3, r5, r7
                            {
                                y=y0;
 8001cde:	2b1d      	cmp	r3, #29
 8001ce0:	bf08      	it	eq
 8001ce2:	463d      	moveq	r5, r7
 8001ce4:	4634      	mov	r4, r6
                    for(j=0;j<8;j++) 
 8001ce6:	f1bc 0c01 	subs.w	ip, ip, #1
 8001cea:	d00d      	beq.n	8001d08 <Draw_ChineseFont+0x114>
                            Draw_Pixel_In_Buf(buf, x-x0, y-y0, 32, 29, front_color);
 8001cec:	1be9      	subs	r1, r5, r7
 8001cee:	1ba3      	subs	r3, r4, r6
                        if((color&0x80)==0x80)
 8001cf0:	f010 0f80 	tst.w	r0, #128	; 0x80
    tmpBuf[y*w + x] = dwColor;    
 8001cf4:	eb03 1341 	add.w	r3, r3, r1, lsl #5
                        if((color&0x80)==0x80)
 8001cf8:	d1e7      	bne.n	8001cca <Draw_ChineseFont+0xd6>
                            Draw_Pixel_In_Buf(buf, x-x0, y-y0, 32, 29, back_color);
 8001cfa:	1beb      	subs	r3, r5, r7
 8001cfc:	1ba1      	subs	r1, r4, r6
    tmpBuf[y*w + x] = dwColor;    
 8001cfe:	eb01 1343 	add.w	r3, r1, r3, lsl #5
 8001d02:	f828 a013 	strh.w	sl, [r8, r3, lsl #1]
}
 8001d06:	e7e2      	b.n	8001cce <Draw_ChineseFont+0xda>
                for(i=0; i<116; i++) 
 8001d08:	45de      	cmp	lr, fp
 8001d0a:	d1d9      	bne.n	8001cc0 <Draw_ChineseFont+0xcc>
    LCD_SetWindows(x, y, x + ptBitMap->width - 1, y + ptBitMap->height - 1);
 8001d0c:	ee18 3a10 	vmov	r3, s16
 8001d10:	4639      	mov	r1, r7
 8001d12:	4630      	mov	r0, r6
 8001d14:	9201      	str	r2, [sp, #4]
 8001d16:	f002 fa4b 	bl	80041b0 <LCD_SetWindows>
    LCD_SetDataLine();
 8001d1a:	f002 f8e5 	bl	8003ee8 <LCD_SetDataLine>
    LCD_WriteDatas(ptBitMap->datas, ptBitMap->height * ptBitMap->width * 2);
 8001d1e:	4640      	mov	r0, r8
 8001d20:	f44f 61e8 	mov.w	r1, #1856	; 0x740
 8001d24:	f002 f8e8 	bl	8003ef8 <LCD_WriteDatas>
        for (wordNum=0; CnChar32x29[wordNum].Index[0]; wordNum++)
 8001d28:	f89b 3001 	ldrb.w	r3, [fp, #1]
    LCD_WriteDatas(ptBitMap->datas, ptBitMap->height * ptBitMap->width * 2);
 8001d2c:	9a01      	ldr	r2, [sp, #4]
        for (wordNum=0; CnChar32x29[wordNum].Index[0]; wordNum++)
 8001d2e:	f10b 0b78 	add.w	fp, fp, #120	; 0x78
 8001d32:	2b00      	cmp	r3, #0
 8001d34:	d1ac      	bne.n	8001c90 <Draw_ChineseFont+0x9c>
            
        } //for (wordNum=0; wordNum<20; wordNum++)
        cn += 3;  /* UTF83 */
        x += 32;
        
        if (x >= g_lcd_width)
 8001d36:	4b11      	ldr	r3, [pc, #68]	; (8001d7c <Draw_ChineseFont+0x188>)
        x += 32;
 8001d38:	f104 0620 	add.w	r6, r4, #32
        if (x >= g_lcd_width)
 8001d3c:	681a      	ldr	r2, [r3, #0]
        {
            x = 0;
            y += 29;
        }

        if (y + 29 >= g_lcd_width)
 8001d3e:	9900      	ldr	r1, [sp, #0]
        if (x >= g_lcd_width)
 8001d40:	42b2      	cmp	r2, r6
            y += 29;
 8001d42:	bf98      	it	ls
 8001d44:	351d      	addls	r5, #29
        if (y + 29 >= g_lcd_width)
 8001d46:	f105 031d 	add.w	r3, r5, #29
            x = 0;
 8001d4a:	bf98      	it	ls
 8001d4c:	2600      	movls	r6, #0
        if (y + 29 >= g_lcd_width)
 8001d4e:	3103      	adds	r1, #3
 8001d50:	429a      	cmp	r2, r3
 8001d52:	9100      	str	r1, [sp, #0]
 8001d54:	d887      	bhi.n	8001c66 <Draw_ChineseFont+0x72>
            return;
        
        x0=x;
    }
}   
 8001d56:	b003      	add	sp, #12
 8001d58:	ecbd 8b02 	vpop	{d8}
 8001d5c:	e8bd 8ff0 	ldmia.w	sp!, {r4, r5, r6, r7, r8, r9, sl, fp, pc}
        buf = malloc(32*29*2);
 8001d60:	f44f 60e8 	mov.w	r0, #1856	; 0x740
 8001d64:	f009 ff0a 	bl	800bb7c <malloc>
 8001d68:	4b02      	ldr	r3, [pc, #8]	; (8001d74 <Draw_ChineseFont+0x180>)
 8001d6a:	6018      	str	r0, [r3, #0]
        if (!buf)
 8001d6c:	2800      	cmp	r0, #0
 8001d6e:	f47f af53 	bne.w	8001c18 <Draw_ChineseFont+0x24>
 8001d72:	e7f0      	b.n	8001d56 <Draw_ChineseFont+0x162>
 8001d74:	20000c08 	.word	0x20000c08
 8001d78:	0800d6bc 	.word	0x0800d6bc
 8001d7c:	20000c10 	.word	0x20000c10
 8001d80:	0800d733 	.word	0x0800d733

08001d84 <Draw_Picture>:
 *                   
 * -----------------------------------------------
 * 2024/02/01        V1.0            
 ***********************************************************************/
void Draw_Picture(uint32_t x, uint32_t y, const uint8_t *pic)
{
 8001d84:	b570      	push	{r4, r5, r6, lr}
 8001d86:	4616      	mov	r6, r2
    P_HEADCOLOR pHead = (P_HEADCOLOR)pic;
    BitMap bitmap; 

    int w = pHead->w;
 8001d88:	8875      	ldrh	r5, [r6, #2]
    int h = pHead->h;
 8001d8a:	f8b6 c004 	ldrh.w	ip, [r6, #4]

    /*  */
    w = ((w<<8)|(w>>8)) & 0xffff;
 8001d8e:	122c      	asrs	r4, r5, #8
 8001d90:	ea44 2405 	orr.w	r4, r4, r5, lsl #8
    h = ((h<<8)|(h>>8)) & 0xffff;
 8001d94:	ea4f 252c 	mov.w	r5, ip, asr #8
 8001d98:	ea45 250c 	orr.w	r5, r5, ip, lsl #8
    LCD_SetWindows(x, y, x + ptBitMap->width - 1, y + ptBitMap->height - 1);
 8001d9c:	1e42      	subs	r2, r0, #1
 8001d9e:	1e4b      	subs	r3, r1, #1
    w = ((w<<8)|(w>>8)) & 0xffff;
 8001da0:	b2a4      	uxth	r4, r4
    h = ((h<<8)|(h>>8)) & 0xffff;
 8001da2:	b2ad      	uxth	r5, r5
    LCD_SetWindows(x, y, x + ptBitMap->width - 1, y + ptBitMap->height - 1);
 8001da4:	4422      	add	r2, r4
 8001da6:	442b      	add	r3, r5
 8001da8:	f002 fa02 	bl	80041b0 <LCD_SetWindows>
    LCD_SetDataLine();
 8001dac:	f002 f89c 	bl	8003ee8 <LCD_SetDataLine>
    LCD_WriteDatas(ptBitMap->datas, ptBitMap->height * ptBitMap->width * 2);
 8001db0:	fb05 f104 	mul.w	r1, r5, r4
 8001db4:	f106 0008 	add.w	r0, r6, #8
 8001db8:	0049      	lsls	r1, r1, #1

    bitmap.width = w;
    bitmap.height = h;        
    bitmap.datas = (uint8_t *)pic;
    Draw_Region(x, y, &bitmap);
}
 8001dba:	e8bd 4070 	ldmia.w	sp!, {r4, r5, r6, lr}
    LCD_WriteDatas(ptBitMap->datas, ptBitMap->height * ptBitMap->width * 2);
 8001dbe:	f002 b89b 	b.w	8003ef8 <LCD_WriteDatas>
 8001dc2:	bf00      	nop

08001dc4 <MX_GPDMA1_Init>:
  /* USER CODE BEGIN GPDMA1_Init 0 */

  /* USER CODE END GPDMA1_Init 0 */

  /* Peripheral clock enable */
  __HAL_RCC_GPDMA1_CLK_ENABLE();
 8001dc4:	4b18      	ldr	r3, [pc, #96]	; (8001e28 <MX_GPDMA1_Init+0x64>)
{
 8001dc6:	b500      	push	{lr}
  __HAL_RCC_GPDMA1_CLK_ENABLE();
 8001dc8:	f8d3 0088 	ldr.w	r0, [r3, #136]	; 0x88
{
 8001dcc:	b083      	sub	sp, #12
  __HAL_RCC_GPDMA1_CLK_ENABLE();
 8001dce:	f040 0001 	orr.w	r0, r0, #1
 8001dd2:	f8c3 0088 	str.w	r0, [r3, #136]	; 0x88
 8001dd6:	f8d3 3088 	ldr.w	r3, [r3, #136]	; 0x88

  /* GPDMA1 interrupt Init */
	HAL_NVIC_SetPriority(GPDMA1_Channel0_IRQn, 5, 0);
 8001dda:	2200      	movs	r2, #0
  __HAL_RCC_GPDMA1_CLK_ENABLE();
 8001ddc:	f003 0301 	and.w	r3, r3, #1
	HAL_NVIC_SetPriority(GPDMA1_Channel0_IRQn, 5, 0);
 8001de0:	2105      	movs	r1, #5
  __HAL_RCC_GPDMA1_CLK_ENABLE();
 8001de2:	9301      	str	r3, [sp, #4]
	HAL_NVIC_SetPriority(GPDMA1_Channel0_IRQn, 5, 0);
 8001de4:	201b      	movs	r0, #27
  __HAL_RCC_GPDMA1_CLK_ENABLE();
 8001de6:	9b01      	ldr	r3, [sp, #4]
	HAL_NVIC_SetPriority(GPDMA1_Channel0_IRQn, 5, 0);
 8001de8:	f002 fa82 	bl	80042f0 <HAL_NVIC_SetPriority>
	HAL_NVIC_EnableIRQ(GPDMA1_Channel0_IRQn);
 8001dec:	201b      	movs	r0, #27
 8001dee:	f002 fabd 	bl	800436c <HAL_NVIC_EnableIRQ>
	HAL_NVIC_SetPriority(GPDMA1_Channel1_IRQn, 5, 0);
 8001df2:	2200      	movs	r2, #0
 8001df4:	2105      	movs	r1, #5
 8001df6:	201c      	movs	r0, #28
 8001df8:	f002 fa7a 	bl	80042f0 <HAL_NVIC_SetPriority>
	HAL_NVIC_EnableIRQ(GPDMA1_Channel1_IRQn);
 8001dfc:	201c      	movs	r0, #28
 8001dfe:	f002 fab5 	bl	800436c <HAL_NVIC_EnableIRQ>
	HAL_NVIC_SetPriority(GPDMA1_Channel2_IRQn, 5, 0);
 8001e02:	2200      	movs	r2, #0
 8001e04:	2105      	movs	r1, #5
 8001e06:	201d      	movs	r0, #29
 8001e08:	f002 fa72 	bl	80042f0 <HAL_NVIC_SetPriority>
	HAL_NVIC_EnableIRQ(GPDMA1_Channel2_IRQn);
 8001e0c:	201d      	movs	r0, #29
 8001e0e:	f002 faad 	bl	800436c <HAL_NVIC_EnableIRQ>
	HAL_NVIC_SetPriority(GPDMA1_Channel3_IRQn, 5, 0);
 8001e12:	201e      	movs	r0, #30
 8001e14:	2200      	movs	r2, #0
 8001e16:	2105      	movs	r1, #5
 8001e18:	f002 fa6a 	bl	80042f0 <HAL_NVIC_SetPriority>
	HAL_NVIC_EnableIRQ(GPDMA1_Channel3_IRQn);
 8001e1c:	201e      	movs	r0, #30
  /* USER CODE END GPDMA1_Init 1 */
  /* USER CODE BEGIN GPDMA1_Init 2 */

  /* USER CODE END GPDMA1_Init 2 */

}
 8001e1e:	b003      	add	sp, #12
 8001e20:	f85d eb04 	ldr.w	lr, [sp], #4
	HAL_NVIC_EnableIRQ(GPDMA1_Channel3_IRQn);
 8001e24:	f002 baa2 	b.w	800436c <HAL_NVIC_EnableIRQ>
 8001e28:	44020c00 	.word	0x44020c00

08001e2c <pvPortMalloc>:
PRIVILEGED_DATA static size_t xNumberOfSuccessfulFrees = ( size_t ) 0U;

/*-----------------------------------------------------------*/

void * pvPortMalloc( size_t xWantedSize )
{
 8001e2c:	b5f8      	push	{r3, r4, r5, r6, r7, lr}
    BlockLink_t * pxPreviousBlock;
    BlockLink_t * pxNewBlockLink;
    void * pvReturn = NULL;
    size_t xAdditionalRequiredSize;

    if( xWantedSize > 0 )
 8001e2e:	1e43      	subs	r3, r0, #1
 8001e30:	330a      	adds	r3, #10
 8001e32:	d85d      	bhi.n	8001ef0 <pvPortMalloc+0xc4>
    {
        /* The wanted size must be increased so it can contain a BlockLink_t
         * structure in addition to the requested amount of bytes. */
        if( heapADD_WILL_OVERFLOW( xWantedSize, xHeapStructSize ) == 0 )
        {
            xWantedSize += xHeapStructSize;
 8001e34:	f100 0408 	add.w	r4, r0, #8

            /* Ensure that blocks are always aligned to the required number
             * of bytes. */
            if( ( xWantedSize & portBYTE_ALIGNMENT_MASK ) != 0x00 )
 8001e38:	f010 0007 	ands.w	r0, r0, #7
 8001e3c:	d162      	bne.n	8001f04 <pvPortMalloc+0xd8>

    vTaskSuspendAll();
    {
        /* If this is the first call to malloc then the heap will require
         * initialisation to setup the list of free blocks. */
        if( pxEnd == NULL )
 8001e3e:	4d4e      	ldr	r5, [pc, #312]	; (8001f78 <pvPortMalloc+0x14c>)
    vTaskSuspendAll();
 8001e40:	f009 fb6a 	bl	800b518 <vTaskSuspendAll>
        if( pxEnd == NULL )
 8001e44:	682b      	ldr	r3, [r5, #0]
 8001e46:	2b00      	cmp	r3, #0
 8001e48:	f000 808d 	beq.w	8001f66 <pvPortMalloc+0x13a>
         * top bit is set.  The top bit of the block size member of the BlockLink_t
         * structure is used to determine who owns the block - the application or
         * the kernel, so it must be free. */
        if( heapBLOCK_SIZE_IS_VALID( xWantedSize ) != 0 )
        {
            if( ( xWantedSize > 0 ) && ( xWantedSize <= xFreeBytesRemaining ) )
 8001e4c:	4623      	mov	r3, r4
 8001e4e:	2b00      	cmp	r3, #0
 8001e50:	dd53      	ble.n	8001efa <pvPortMalloc+0xce>
 8001e52:	4f4a      	ldr	r7, [pc, #296]	; (8001f7c <pvPortMalloc+0x150>)
 8001e54:	683e      	ldr	r6, [r7, #0]
 8001e56:	42a6      	cmp	r6, r4
 8001e58:	d34f      	bcc.n	8001efa <pvPortMalloc+0xce>
            {
                /* Traverse the list from the start (lowest address) block until
                 * one of adequate size is found. */
                pxPreviousBlock = &xStart;
                pxBlock = heapPROTECT_BLOCK_POINTER( xStart.pxNextFreeBlock );
 8001e5a:	4949      	ldr	r1, [pc, #292]	; (8001f80 <pvPortMalloc+0x154>)
                heapVALIDATE_BLOCK_POINTER( pxBlock );
 8001e5c:	4849      	ldr	r0, [pc, #292]	; (8001f84 <pvPortMalloc+0x158>)
                pxBlock = heapPROTECT_BLOCK_POINTER( xStart.pxNextFreeBlock );
 8001e5e:	680b      	ldr	r3, [r1, #0]
                heapVALIDATE_BLOCK_POINTER( pxBlock );
 8001e60:	4283      	cmp	r3, r0
 8001e62:	d356      	bcc.n	8001f12 <pvPortMalloc+0xe6>
 8001e64:	f600 7eff 	addw	lr, r0, #4095	; 0xfff
 8001e68:	4573      	cmp	r3, lr
 8001e6a:	d852      	bhi.n	8001f12 <pvPortMalloc+0xe6>
 8001e6c:	468c      	mov	ip, r1
 8001e6e:	e007      	b.n	8001e80 <pvPortMalloc+0x54>

                while( ( pxBlock->xBlockSize < xWantedSize ) && ( pxBlock->pxNextFreeBlock != heapPROTECT_BLOCK_POINTER( NULL ) ) )
 8001e70:	681a      	ldr	r2, [r3, #0]
 8001e72:	b142      	cbz	r2, 8001e86 <pvPortMalloc+0x5a>
                {
                    pxPreviousBlock = pxBlock;
                    pxBlock = heapPROTECT_BLOCK_POINTER( pxBlock->pxNextFreeBlock );
                    heapVALIDATE_BLOCK_POINTER( pxBlock );
 8001e74:	4282      	cmp	r2, r0
 8001e76:	d370      	bcc.n	8001f5a <pvPortMalloc+0x12e>
 8001e78:	4572      	cmp	r2, lr
 8001e7a:	469c      	mov	ip, r3
 8001e7c:	d86d      	bhi.n	8001f5a <pvPortMalloc+0x12e>
 8001e7e:	4613      	mov	r3, r2
                while( ( pxBlock->xBlockSize < xWantedSize ) && ( pxBlock->pxNextFreeBlock != heapPROTECT_BLOCK_POINTER( NULL ) ) )
 8001e80:	6859      	ldr	r1, [r3, #4]
 8001e82:	42a1      	cmp	r1, r4
 8001e84:	d3f4      	bcc.n	8001e70 <pvPortMalloc+0x44>
                }

                /* If the end marker was reached then a block of adequate size
                 * was not found. */
                if( pxBlock != pxEnd )
 8001e86:	682a      	ldr	r2, [r5, #0]
 8001e88:	429a      	cmp	r2, r3
 8001e8a:	d036      	beq.n	8001efa <pvPortMalloc+0xce>
                {
                    /* Return the memory space pointed to - jumping over the
                     * BlockLink_t structure at its start. */
                    pvReturn = ( void * ) ( ( ( uint8_t * ) heapPROTECT_BLOCK_POINTER( pxPreviousBlock->pxNextFreeBlock ) ) + xHeapStructSize );
 8001e8c:	f8dc 5000 	ldr.w	r5, [ip]
 8001e90:	3508      	adds	r5, #8
                    heapVALIDATE_BLOCK_POINTER( pvReturn );
 8001e92:	4285      	cmp	r5, r0
 8001e94:	d364      	bcc.n	8001f60 <pvPortMalloc+0x134>
 8001e96:	4575      	cmp	r5, lr
 8001e98:	d862      	bhi.n	8001f60 <pvPortMalloc+0x134>

                    /* This block is being returned for use so must be taken out
                     * of the list of free blocks. */
                    pxPreviousBlock->pxNextFreeBlock = pxBlock->pxNextFreeBlock;
 8001e9a:	6818      	ldr	r0, [r3, #0]

                    /* If the block is larger than required it can be split into
                     * two. */
                    configASSERT( heapSUBTRACT_WILL_UNDERFLOW( pxBlock->xBlockSize, xWantedSize ) == 0 );
 8001e9c:	42a1      	cmp	r1, r4
                    pxPreviousBlock->pxNextFreeBlock = pxBlock->pxNextFreeBlock;
 8001e9e:	f8cc 0000 	str.w	r0, [ip]
                    configASSERT( heapSUBTRACT_WILL_UNDERFLOW( pxBlock->xBlockSize, xWantedSize ) == 0 );
 8001ea2:	d362      	bcc.n	8001f6a <pvPortMalloc+0x13e>

                    if( ( pxBlock->xBlockSize - xWantedSize ) > heapMINIMUM_BLOCK_SIZE )
 8001ea4:	eba1 0e04 	sub.w	lr, r1, r4
 8001ea8:	f1be 0f10 	cmp.w	lr, #16
 8001eac:	d908      	bls.n	8001ec0 <pvPortMalloc+0x94>
                    {
                        /* This block is to be split into two.  Create a new
                         * block following the number of bytes requested. The void
                         * cast is used to prevent byte alignment warnings from the
                         * compiler. */
                        pxNewBlockLink = ( void * ) ( ( ( uint8_t * ) pxBlock ) + xWantedSize );
 8001eae:	191a      	adds	r2, r3, r4
                        configASSERT( ( ( ( size_t ) pxNewBlockLink ) & portBYTE_ALIGNMENT_MASK ) == 0 );
 8001eb0:	0751      	lsls	r1, r2, #29
 8001eb2:	d15d      	bne.n	8001f70 <pvPortMalloc+0x144>

                        /* Calculate the sizes of two blocks split from the
                         * single block. */
                        pxNewBlockLink->xBlockSize = pxBlock->xBlockSize - xWantedSize;
 8001eb4:	4621      	mov	r1, r4
 8001eb6:	f8c2 e004 	str.w	lr, [r2, #4]
                        pxBlock->xBlockSize = xWantedSize;

                        /* Insert the new block into the list of free blocks. */
                        pxNewBlockLink->pxNextFreeBlock = pxPreviousBlock->pxNextFreeBlock;
 8001eba:	5118      	str	r0, [r3, r4]
                        pxPreviousBlock->pxNextFreeBlock = heapPROTECT_BLOCK_POINTER( pxNewBlockLink );
 8001ebc:	f8cc 2000 	str.w	r2, [ip]
                        mtCOVERAGE_TEST_MARKER();
                    }

                    xFreeBytesRemaining -= pxBlock->xBlockSize;

                    if( xFreeBytesRemaining < xMinimumEverFreeBytesRemaining )
 8001ec0:	4831      	ldr	r0, [pc, #196]	; (8001f88 <pvPortMalloc+0x15c>)
                    xFreeBytesRemaining -= pxBlock->xBlockSize;
 8001ec2:	1a76      	subs	r6, r6, r1
                    if( xFreeBytesRemaining < xMinimumEverFreeBytesRemaining )
 8001ec4:	6804      	ldr	r4, [r0, #0]
                        mtCOVERAGE_TEST_MARKER();
                    }

                    /* The block is being returned - it is allocated and owned
                     * by the application and has no "next" block. */
                    heapALLOCATE_BLOCK( pxBlock );
 8001ec6:	f041 4100 	orr.w	r1, r1, #2147483648	; 0x80000000
                    if( xFreeBytesRemaining < xMinimumEverFreeBytesRemaining )
 8001eca:	42a6      	cmp	r6, r4
                    pxBlock->pxNextFreeBlock = NULL;
 8001ecc:	f04f 0400 	mov.w	r4, #0
                        xMinimumEverFreeBytesRemaining = xFreeBytesRemaining;
 8001ed0:	bf38      	it	cc
 8001ed2:	6006      	strcc	r6, [r0, #0]
                    xNumberOfSuccessfulAllocations++;
 8001ed4:	482d      	ldr	r0, [pc, #180]	; (8001f8c <pvPortMalloc+0x160>)
                    heapALLOCATE_BLOCK( pxBlock );
 8001ed6:	6059      	str	r1, [r3, #4]
                    xNumberOfSuccessfulAllocations++;
 8001ed8:	6802      	ldr	r2, [r0, #0]
                    pxBlock->pxNextFreeBlock = NULL;
 8001eda:	601c      	str	r4, [r3, #0]
                    xNumberOfSuccessfulAllocations++;
 8001edc:	3201      	adds	r2, #1
                    xFreeBytesRemaining -= pxBlock->xBlockSize;
 8001ede:	603e      	str	r6, [r7, #0]
                    xNumberOfSuccessfulAllocations++;
 8001ee0:	6002      	str	r2, [r0, #0]
            mtCOVERAGE_TEST_MARKER();
        }

        traceMALLOC( pvReturn, xWantedSize );
    }
    ( void ) xTaskResumeAll();
 8001ee2:	f009 fb21 	bl	800b528 <xTaskResumeAll>
            mtCOVERAGE_TEST_MARKER();
        }
    }
    #endif /* if ( configUSE_MALLOC_FAILED_HOOK == 1 ) */

    configASSERT( ( ( ( size_t ) pvReturn ) & ( size_t ) portBYTE_ALIGNMENT_MASK ) == 0 );
 8001ee6:	076b      	lsls	r3, r5, #29
 8001ee8:	d00a      	beq.n	8001f00 <pvPortMalloc+0xd4>
 8001eea:	f000 fb33 	bl	8002554 <ulSetInterruptMask>
 8001eee:	e7fe      	b.n	8001eee <pvPortMalloc+0xc2>
        if( pxEnd == NULL )
 8001ef0:	4d21      	ldr	r5, [pc, #132]	; (8001f78 <pvPortMalloc+0x14c>)
    vTaskSuspendAll();
 8001ef2:	f009 fb11 	bl	800b518 <vTaskSuspendAll>
        if( pxEnd == NULL )
 8001ef6:	682b      	ldr	r3, [r5, #0]
 8001ef8:	b173      	cbz	r3, 8001f18 <pvPortMalloc+0xec>
    ( void ) xTaskResumeAll();
 8001efa:	f009 fb15 	bl	800b528 <xTaskResumeAll>
 8001efe:	2500      	movs	r5, #0
    return pvReturn;
}
 8001f00:	4628      	mov	r0, r5
 8001f02:	bdf8      	pop	{r3, r4, r5, r6, r7, pc}
                xAdditionalRequiredSize = portBYTE_ALIGNMENT - ( xWantedSize & portBYTE_ALIGNMENT_MASK );
 8001f04:	f1c0 0008 	rsb	r0, r0, #8
                if( heapADD_WILL_OVERFLOW( xWantedSize, xAdditionalRequiredSize ) == 0 )
 8001f08:	43c3      	mvns	r3, r0
 8001f0a:	42a3      	cmp	r3, r4
 8001f0c:	d3f0      	bcc.n	8001ef0 <pvPortMalloc+0xc4>
                    xWantedSize += xAdditionalRequiredSize;
 8001f0e:	4404      	add	r4, r0
 8001f10:	e795      	b.n	8001e3e <pvPortMalloc+0x12>
                heapVALIDATE_BLOCK_POINTER( pxBlock );
 8001f12:	f000 fb1f 	bl	8002554 <ulSetInterruptMask>
 8001f16:	e7fe      	b.n	8001f16 <pvPortMalloc+0xea>
        if( pxEnd == NULL )
 8001f18:	461c      	mov	r4, r3
    BlockLink_t * pxFirstFreeBlock;
    portPOINTER_SIZE_TYPE uxStartAddress, uxEndAddress;
    size_t xTotalHeapSize = configTOTAL_HEAP_SIZE;

    /* Ensure the heap starts on a correctly aligned boundary. */
    uxStartAddress = ( portPOINTER_SIZE_TYPE ) ucHeap;
 8001f1a:	481a      	ldr	r0, [pc, #104]	; (8001f84 <pvPortMalloc+0x158>)

    if( ( uxStartAddress & portBYTE_ALIGNMENT_MASK ) != 0 )
 8001f1c:	0746      	lsls	r6, r0, #29
 8001f1e:	d115      	bne.n	8001f4c <pvPortMalloc+0x120>
    xStart.pxNextFreeBlock = ( void * ) heapPROTECT_BLOCK_POINTER( uxStartAddress );
    xStart.xBlockSize = ( size_t ) 0;

    /* pxEnd is used to mark the end of the list of free blocks and is inserted
     * at the end of the heap space. */
    uxEndAddress = uxStartAddress + ( portPOINTER_SIZE_TYPE ) xTotalHeapSize;
 8001f20:	4601      	mov	r1, r0
 8001f22:	4606      	mov	r6, r0
 8001f24:	f500 5280 	add.w	r2, r0, #4096	; 0x1000
    xStart.xBlockSize = ( size_t ) 0;
 8001f28:	2000      	movs	r0, #0
    uxEndAddress -= ( portPOINTER_SIZE_TYPE ) xHeapStructSize;
 8001f2a:	3a08      	subs	r2, #8
    uxEndAddress &= ~( ( portPOINTER_SIZE_TYPE ) portBYTE_ALIGNMENT_MASK );
 8001f2c:	f022 0207 	bic.w	r2, r2, #7
    xStart.pxNextFreeBlock = ( void * ) heapPROTECT_BLOCK_POINTER( uxStartAddress );
 8001f30:	4f13      	ldr	r7, [pc, #76]	; (8001f80 <pvPortMalloc+0x154>)
    pxEnd->pxNextFreeBlock = heapPROTECT_BLOCK_POINTER( NULL );

    /* To start with there is a single free block that is sized to take up the
     * entire heap space, minus the space taken by pxEnd. */
    pxFirstFreeBlock = ( BlockLink_t * ) uxStartAddress;
    pxFirstFreeBlock->xBlockSize = ( size_t ) ( uxEndAddress - ( portPOINTER_SIZE_TYPE ) pxFirstFreeBlock );
 8001f32:	1a51      	subs	r1, r2, r1
    xStart.xBlockSize = ( size_t ) 0;
 8001f34:	e9c7 6000 	strd	r6, r0, [r7]
    pxEnd = ( BlockLink_t * ) uxEndAddress;
 8001f38:	602a      	str	r2, [r5, #0]
    pxEnd->pxNextFreeBlock = heapPROTECT_BLOCK_POINTER( NULL );
 8001f3a:	e9c2 0000 	strd	r0, r0, [r2]
    pxFirstFreeBlock->xBlockSize = ( size_t ) ( uxEndAddress - ( portPOINTER_SIZE_TYPE ) pxFirstFreeBlock );
 8001f3e:	e9c6 2100 	strd	r2, r1, [r6]
    pxFirstFreeBlock->pxNextFreeBlock = heapPROTECT_BLOCK_POINTER( pxEnd );

    /* Only one block exists - and it covers the entire usable heap space. */
    xMinimumEverFreeBytesRemaining = pxFirstFreeBlock->xBlockSize;
 8001f42:	4a11      	ldr	r2, [pc, #68]	; (8001f88 <pvPortMalloc+0x15c>)
 8001f44:	6011      	str	r1, [r2, #0]
    xFreeBytesRemaining = pxFirstFreeBlock->xBlockSize;
 8001f46:	4a0d      	ldr	r2, [pc, #52]	; (8001f7c <pvPortMalloc+0x150>)
 8001f48:	6011      	str	r1, [r2, #0]
}
 8001f4a:	e780      	b.n	8001e4e <pvPortMalloc+0x22>
        uxStartAddress += ( portBYTE_ALIGNMENT - 1 );
 8001f4c:	1dc1      	adds	r1, r0, #7
        uxStartAddress &= ~( ( portPOINTER_SIZE_TYPE ) portBYTE_ALIGNMENT_MASK );
 8001f4e:	f021 0107 	bic.w	r1, r1, #7
    xStart.pxNextFreeBlock = ( void * ) heapPROTECT_BLOCK_POINTER( uxStartAddress );
 8001f52:	460e      	mov	r6, r1
 8001f54:	f500 5280 	add.w	r2, r0, #4096	; 0x1000
 8001f58:	e7e6      	b.n	8001f28 <pvPortMalloc+0xfc>
                    heapVALIDATE_BLOCK_POINTER( pxBlock );
 8001f5a:	f000 fafb 	bl	8002554 <ulSetInterruptMask>
 8001f5e:	e7fe      	b.n	8001f5e <pvPortMalloc+0x132>
                    heapVALIDATE_BLOCK_POINTER( pvReturn );
 8001f60:	f000 faf8 	bl	8002554 <ulSetInterruptMask>
 8001f64:	e7fe      	b.n	8001f64 <pvPortMalloc+0x138>
            if( ( xWantedSize > 0 ) && ( xWantedSize <= xFreeBytesRemaining ) )
 8001f66:	4623      	mov	r3, r4
 8001f68:	e7d7      	b.n	8001f1a <pvPortMalloc+0xee>
                    configASSERT( heapSUBTRACT_WILL_UNDERFLOW( pxBlock->xBlockSize, xWantedSize ) == 0 );
 8001f6a:	f000 faf3 	bl	8002554 <ulSetInterruptMask>
 8001f6e:	e7fe      	b.n	8001f6e <pvPortMalloc+0x142>
                        configASSERT( ( ( ( size_t ) pxNewBlockLink ) & portBYTE_ALIGNMENT_MASK ) == 0 );
 8001f70:	f000 faf0 	bl	8002554 <ulSetInterruptMask>
 8001f74:	e7fe      	b.n	8001f74 <pvPortMalloc+0x148>
 8001f76:	bf00      	nop
 8001f78:	20000c14 	.word	0x20000c14
 8001f7c:	20001c18 	.word	0x20001c18
 8001f80:	20001c28 	.word	0x20001c28
 8001f84:	20000c18 	.word	0x20000c18
 8001f88:	20001c1c 	.word	0x20001c1c
 8001f8c:	20001c20 	.word	0x20001c20

08001f90 <vPortFree>:
    if( pv != NULL )
 8001f90:	b1b8      	cbz	r0, 8001fc2 <vPortFree+0x32>
{
 8001f92:	b5f8      	push	{r3, r4, r5, r6, r7, lr}
        heapVALIDATE_BLOCK_POINTER( pxLink );
 8001f94:	4e2f      	ldr	r6, [pc, #188]	; (8002054 <vPortFree+0xc4>)
        puc -= xHeapStructSize;
 8001f96:	f1a0 0508 	sub.w	r5, r0, #8
        heapVALIDATE_BLOCK_POINTER( pxLink );
 8001f9a:	42b5      	cmp	r5, r6
 8001f9c:	4604      	mov	r4, r0
 8001f9e:	d30d      	bcc.n	8001fbc <vPortFree+0x2c>
 8001fa0:	f606 77ff 	addw	r7, r6, #4095	; 0xfff
 8001fa4:	42bd      	cmp	r5, r7
 8001fa6:	d809      	bhi.n	8001fbc <vPortFree+0x2c>
        configASSERT( heapBLOCK_IS_ALLOCATED( pxLink ) != 0 );
 8001fa8:	f850 3c04 	ldr.w	r3, [r0, #-4]
 8001fac:	2b00      	cmp	r3, #0
 8001fae:	da09      	bge.n	8001fc4 <vPortFree+0x34>
        configASSERT( pxLink->pxNextFreeBlock == NULL );
 8001fb0:	f850 1c08 	ldr.w	r1, [r0, #-8]
 8001fb4:	b149      	cbz	r1, 8001fca <vPortFree+0x3a>
 8001fb6:	f000 facd 	bl	8002554 <ulSetInterruptMask>
 8001fba:	e7fe      	b.n	8001fba <vPortFree+0x2a>
        heapVALIDATE_BLOCK_POINTER( pxLink );
 8001fbc:	f000 faca 	bl	8002554 <ulSetInterruptMask>
 8001fc0:	e7fe      	b.n	8001fc0 <vPortFree+0x30>
 8001fc2:	4770      	bx	lr
        configASSERT( heapBLOCK_IS_ALLOCATED( pxLink ) != 0 );
 8001fc4:	f000 fac6 	bl	8002554 <ulSetInterruptMask>
 8001fc8:	e7fe      	b.n	8001fc8 <vPortFree+0x38>
                    if( heapSUBTRACT_WILL_UNDERFLOW( pxLink->xBlockSize, xHeapStructSize ) == 0 )
 8001fca:	f023 4200 	bic.w	r2, r3, #2147483648	; 0x80000000
                heapFREE_BLOCK( pxLink );
 8001fce:	4613      	mov	r3, r2
                    if( heapSUBTRACT_WILL_UNDERFLOW( pxLink->xBlockSize, xHeapStructSize ) == 0 )
 8001fd0:	f022 0207 	bic.w	r2, r2, #7
                heapFREE_BLOCK( pxLink );
 8001fd4:	f840 3c04 	str.w	r3, [r0, #-4]
                    if( heapSUBTRACT_WILL_UNDERFLOW( pxLink->xBlockSize, xHeapStructSize ) == 0 )
 8001fd8:	bb4a      	cbnz	r2, 800202e <vPortFree+0x9e>
                vTaskSuspendAll();
 8001fda:	f009 fa9d 	bl	800b518 <vTaskSuspendAll>
                    xFreeBytesRemaining += pxLink->xBlockSize;
 8001fde:	4a1e      	ldr	r2, [pc, #120]	; (8002058 <vPortFree+0xc8>)
 8001fe0:	f854 1c04 	ldr.w	r1, [r4, #-4]
 8001fe4:	6813      	ldr	r3, [r2, #0]
    BlockLink_t * pxIterator;
    uint8_t * puc;

    /* Iterate through the list until a block is found that has a higher address
     * than the block being inserted. */
    for( pxIterator = &xStart; heapPROTECT_BLOCK_POINTER( pxIterator->pxNextFreeBlock ) < pxBlockToInsert; pxIterator = heapPROTECT_BLOCK_POINTER( pxIterator->pxNextFreeBlock ) )
 8001fe6:	481d      	ldr	r0, [pc, #116]	; (800205c <vPortFree+0xcc>)
                    xFreeBytesRemaining += pxLink->xBlockSize;
 8001fe8:	440b      	add	r3, r1
 8001fea:	6013      	str	r3, [r2, #0]
    for( pxIterator = &xStart; heapPROTECT_BLOCK_POINTER( pxIterator->pxNextFreeBlock ) < pxBlockToInsert; pxIterator = heapPROTECT_BLOCK_POINTER( pxIterator->pxNextFreeBlock ) )
 8001fec:	4603      	mov	r3, r0
 8001fee:	461a      	mov	r2, r3
 8001ff0:	681b      	ldr	r3, [r3, #0]
 8001ff2:	429d      	cmp	r5, r3
 8001ff4:	d8fb      	bhi.n	8001fee <vPortFree+0x5e>
    {
        /* Nothing to do here, just iterate to the right position. */
    }

    if( pxIterator != &xStart )
 8001ff6:	4282      	cmp	r2, r0
 8001ff8:	d006      	beq.n	8002008 <vPortFree+0x78>
    {
        heapVALIDATE_BLOCK_POINTER( pxIterator );
 8001ffa:	42b2      	cmp	r2, r6
 8001ffc:	d301      	bcc.n	8002002 <vPortFree+0x72>
 8001ffe:	42ba      	cmp	r2, r7
 8002000:	d902      	bls.n	8002008 <vPortFree+0x78>
 8002002:	f000 faa7 	bl	8002554 <ulSetInterruptMask>
 8002006:	e7fe      	b.n	8002006 <vPortFree+0x76>

    /* Do the block being inserted, and the block it is being inserted after
     * make a contiguous block of memory? */
    puc = ( uint8_t * ) pxIterator;

    if( ( puc + pxIterator->xBlockSize ) == ( uint8_t * ) pxBlockToInsert )
 8002008:	6850      	ldr	r0, [r2, #4]
 800200a:	1814      	adds	r4, r2, r0
 800200c:	42a5      	cmp	r5, r4
 800200e:	d01d      	beq.n	800204c <vPortFree+0xbc>

    /* Do the block being inserted, and the block it is being inserted before
     * make a contiguous block of memory? */
    puc = ( uint8_t * ) pxBlockToInsert;

    if( ( puc + pxBlockToInsert->xBlockSize ) == ( uint8_t * ) heapPROTECT_BLOCK_POINTER( pxIterator->pxNextFreeBlock ) )
 8002010:	1868      	adds	r0, r5, r1
 8002012:	4283      	cmp	r3, r0
 8002014:	d010      	beq.n	8002038 <vPortFree+0xa8>
            pxBlockToInsert->pxNextFreeBlock = heapPROTECT_BLOCK_POINTER( pxEnd );
        }
    }
    else
    {
        pxBlockToInsert->pxNextFreeBlock = pxIterator->pxNextFreeBlock;
 8002016:	602b      	str	r3, [r5, #0]

    /* If the block being inserted plugged a gab, so was merged with the block
     * before and the block after, then it's pxNextFreeBlock pointer will have
     * already been set, and should not be set here as that would make it point
     * to itself. */
    if( pxIterator != pxBlockToInsert )
 8002018:	42aa      	cmp	r2, r5
    {
        pxIterator->pxNextFreeBlock = heapPROTECT_BLOCK_POINTER( pxBlockToInsert );
 800201a:	bf18      	it	ne
 800201c:	6015      	strne	r5, [r2, #0]
                    xNumberOfSuccessfulFrees++;
 800201e:	4a10      	ldr	r2, [pc, #64]	; (8002060 <vPortFree+0xd0>)
 8002020:	6813      	ldr	r3, [r2, #0]
 8002022:	3301      	adds	r3, #1
 8002024:	6013      	str	r3, [r2, #0]
}
 8002026:	e8bd 40f8 	ldmia.w	sp!, {r3, r4, r5, r6, r7, lr}
                ( void ) xTaskResumeAll();
 800202a:	f009 ba7d 	b.w	800b528 <xTaskResumeAll>
                        ( void ) memset( puc + xHeapStructSize, 0, pxLink->xBlockSize - xHeapStructSize );
 800202e:	f1a3 0208 	sub.w	r2, r3, #8
 8002032:	f00a f865 	bl	800c100 <memset>
 8002036:	e7d0      	b.n	8001fda <vPortFree+0x4a>
        if( heapPROTECT_BLOCK_POINTER( pxIterator->pxNextFreeBlock ) != pxEnd )
 8002038:	480a      	ldr	r0, [pc, #40]	; (8002064 <vPortFree+0xd4>)
 800203a:	6800      	ldr	r0, [r0, #0]
 800203c:	4283      	cmp	r3, r0
 800203e:	d0ea      	beq.n	8002016 <vPortFree+0x86>
            pxBlockToInsert->pxNextFreeBlock = heapPROTECT_BLOCK_POINTER( pxIterator->pxNextFreeBlock )->pxNextFreeBlock;
 8002040:	e9d3 3000 	ldrd	r3, r0, [r3]
            pxBlockToInsert->xBlockSize += heapPROTECT_BLOCK_POINTER( pxIterator->pxNextFreeBlock )->xBlockSize;
 8002044:	4401      	add	r1, r0
            pxBlockToInsert->pxNextFreeBlock = heapPROTECT_BLOCK_POINTER( pxIterator->pxNextFreeBlock )->pxNextFreeBlock;
 8002046:	e9c5 3100 	strd	r3, r1, [r5]
 800204a:	e7e5      	b.n	8002018 <vPortFree+0x88>
        pxIterator->xBlockSize += pxBlockToInsert->xBlockSize;
 800204c:	4401      	add	r1, r0
 800204e:	4615      	mov	r5, r2
 8002050:	6051      	str	r1, [r2, #4]
        pxBlockToInsert = pxIterator;
 8002052:	e7dd      	b.n	8002010 <vPortFree+0x80>
 8002054:	20000c18 	.word	0x20000c18
 8002058:	20001c18 	.word	0x20001c18
 800205c:	20001c28 	.word	0x20001c28
 8002060:	20001c24 	.word	0x20001c24
 8002064:	20000c14 	.word	0x20000c14

08002068 <rt_hw_console_output>:

rt_weak void rt_hw_console_output(const char *str)
{
    /* empty console output */

    myputstr(str);
 8002068:	f7ff bbce 	b.w	8001808 <myputstr>

0800206c <rt_kprintf>:
 * @param fmt is the format parameters.
 *
 * @return The number of characters actually written to buffer.
 */
rt_weak int rt_kprintf(const char *fmt, ...)
{
 800206c:	b40f      	push	{r0, r1, r2, r3}
 800206e:	b530      	push	{r4, r5, lr}
 8002070:	b083      	sub	sp, #12
 8002072:	ab06      	add	r3, sp, #24
    /* the return value of vsnprintf is the number of bytes that would be
     * written to buffer had if the size of the buffer been sufficiently
     * large excluding the terminating null byte. If the output string
     * would be larger than the rt_log_buf, we have to adjust the output
     * length. */
    length = rt_vsnprintf(rt_log_buf, sizeof(rt_log_buf) - 1, fmt, args);
 8002074:	4d0a      	ldr	r5, [pc, #40]	; (80020a0 <rt_kprintf+0x34>)
{
 8002076:	f853 2b04 	ldr.w	r2, [r3], #4
    length = rt_vsnprintf(rt_log_buf, sizeof(rt_log_buf) - 1, fmt, args);
 800207a:	217f      	movs	r1, #127	; 0x7f
 800207c:	4628      	mov	r0, r5
    va_start(args, fmt);
 800207e:	9301      	str	r3, [sp, #4]
    length = rt_vsnprintf(rt_log_buf, sizeof(rt_log_buf) - 1, fmt, args);
 8002080:	f001 fbb0 	bl	80037e4 <rt_vsnprintf>
 8002084:	4604      	mov	r4, r0
    if (length > RT_CONSOLEBUF_SIZE - 1)
    {
        length = RT_CONSOLEBUF_SIZE - 1;
    }

    rt_hw_console_output(rt_log_buf);
 8002086:	4628      	mov	r0, r5
 8002088:	f7ff ffee 	bl	8002068 <rt_hw_console_output>

    va_end(args);

    return length;
}
 800208c:	2c7f      	cmp	r4, #127	; 0x7f
 800208e:	4620      	mov	r0, r4
 8002090:	bf28      	it	cs
 8002092:	207f      	movcs	r0, #127	; 0x7f
 8002094:	b003      	add	sp, #12
 8002096:	e8bd 4030 	ldmia.w	sp!, {r4, r5, lr}
 800209a:	b004      	add	sp, #16
 800209c:	4770      	bx	lr
 800209e:	bf00      	nop
 80020a0:	20001c30 	.word	0x20001c30

080020a4 <vListInitialise>:

    listSET_FIRST_LIST_ITEM_INTEGRITY_CHECK_VALUE( &( pxList->xListEnd ) );

    /* The list end value is the highest possible value in the list to
     * ensure it remains at the end of the list. */
    pxList->xListEnd.xItemValue = portMAX_DELAY;
 80020a4:	f04f 31ff 	mov.w	r1, #4294967295	; 0xffffffff
        pxList->xListEnd.pxContainer = NULL;
        listSET_SECOND_LIST_ITEM_INTEGRITY_CHECK_VALUE( &( pxList->xListEnd ) );
    }
    #endif

    pxList->uxNumberOfItems = ( UBaseType_t ) 0U;
 80020a8:	2200      	movs	r2, #0
    pxList->pxIndex = ( ListItem_t * ) &( pxList->xListEnd );
 80020aa:	f100 0308 	add.w	r3, r0, #8
    pxList->xListEnd.xItemValue = portMAX_DELAY;
 80020ae:	e9c0 3101 	strd	r3, r1, [r0, #4]
    pxList->xListEnd.pxPrevious = ( ListItem_t * ) &( pxList->xListEnd );
 80020b2:	e9c0 3303 	strd	r3, r3, [r0, #12]
    pxList->uxNumberOfItems = ( UBaseType_t ) 0U;
 80020b6:	6002      	str	r2, [r0, #0]
     * configUSE_LIST_DATA_INTEGRITY_CHECK_BYTES is set to 1. */
    listSET_LIST_INTEGRITY_CHECK_1_VALUE( pxList );
    listSET_LIST_INTEGRITY_CHECK_2_VALUE( pxList );

    traceRETURN_vListInitialise();
}
 80020b8:	4770      	bx	lr
 80020ba:	bf00      	nop

080020bc <vListInitialiseItem>:
void vListInitialiseItem( ListItem_t * const pxItem )
{
    traceENTER_vListInitialiseItem( pxItem );

    /* Make sure the list item is not recorded as being on a list. */
    pxItem->pxContainer = NULL;
 80020bc:	2300      	movs	r3, #0
 80020be:	6103      	str	r3, [r0, #16]
     * configUSE_LIST_DATA_INTEGRITY_CHECK_BYTES is set to 1. */
    listSET_FIRST_LIST_ITEM_INTEGRITY_CHECK_VALUE( pxItem );
    listSET_SECOND_LIST_ITEM_INTEGRITY_CHECK_VALUE( pxItem );

    traceRETURN_vListInitialiseItem();
}
 80020c0:	4770      	bx	lr
 80020c2:	bf00      	nop

080020c4 <vListInsert>:
}
/*-----------------------------------------------------------*/

void vListInsert( List_t * const pxList,
                  ListItem_t * const pxNewListItem )
{
 80020c4:	b430      	push	{r4, r5}
    ListItem_t * pxIterator;
    const TickType_t xValueOfInsertion = pxNewListItem->xItemValue;
 80020c6:	680d      	ldr	r5, [r1, #0]
     * new list item should be placed after it.  This ensures that TCBs which are
     * stored in ready lists (all of which have the same xItemValue value) get a
     * share of the CPU.  However, if the xItemValue is the same as the back marker
     * the iteration loop below will not end.  Therefore the value is checked
     * first, and the algorithm slightly modified if necessary. */
    if( xValueOfInsertion == portMAX_DELAY )
 80020c8:	1c6b      	adds	r3, r5, #1
 80020ca:	d010      	beq.n	80020ee <vListInsert+0x2a>
        *   5) If the FreeRTOS port supports interrupt nesting then ensure that
        *      the priority of the tick interrupt is at or below
        *      configMAX_SYSCALL_INTERRUPT_PRIORITY.
        **********************************************************************/

        for( pxIterator = ( ListItem_t * ) &( pxList->xListEnd ); pxIterator->pxNext->xItemValue <= xValueOfInsertion; pxIterator = pxIterator->pxNext )
 80020cc:	f100 0308 	add.w	r3, r0, #8
 80020d0:	461c      	mov	r4, r3
 80020d2:	685b      	ldr	r3, [r3, #4]
 80020d4:	681a      	ldr	r2, [r3, #0]
 80020d6:	42aa      	cmp	r2, r5
 80020d8:	d9fa      	bls.n	80020d0 <vListInsert+0xc>

    /* Remember which list the item is in.  This allows fast removal of the
     * item later. */
    pxNewListItem->pxContainer = pxList;

    ( pxList->uxNumberOfItems ) = ( UBaseType_t ) ( pxList->uxNumberOfItems + 1U );
 80020da:	6802      	ldr	r2, [r0, #0]
    pxNewListItem->pxNext = pxIterator->pxNext;
 80020dc:	604b      	str	r3, [r1, #4]
    ( pxList->uxNumberOfItems ) = ( UBaseType_t ) ( pxList->uxNumberOfItems + 1U );
 80020de:	3201      	adds	r2, #1
    pxNewListItem->pxNext->pxPrevious = pxNewListItem;
 80020e0:	6099      	str	r1, [r3, #8]
    pxNewListItem->pxPrevious = pxIterator;
 80020e2:	608c      	str	r4, [r1, #8]
    pxIterator->pxNext = pxNewListItem;
 80020e4:	6061      	str	r1, [r4, #4]
    pxNewListItem->pxContainer = pxList;
 80020e6:	6108      	str	r0, [r1, #16]

    traceRETURN_vListInsert();
}
 80020e8:	bc30      	pop	{r4, r5}
    ( pxList->uxNumberOfItems ) = ( UBaseType_t ) ( pxList->uxNumberOfItems + 1U );
 80020ea:	6002      	str	r2, [r0, #0]
}
 80020ec:	4770      	bx	lr
        pxIterator = pxList->xListEnd.pxPrevious;
 80020ee:	6904      	ldr	r4, [r0, #16]
    pxNewListItem->pxNext = pxIterator->pxNext;
 80020f0:	6863      	ldr	r3, [r4, #4]
 80020f2:	e7f2      	b.n	80020da <vListInsert+0x16>

080020f4 <uxListRemove>:
/*-----------------------------------------------------------*/


UBaseType_t uxListRemove( ListItem_t * const pxItemToRemove )
{
 80020f4:	4603      	mov	r3, r0
    /* The list item knows which list it is in.  Obtain the list from the list
     * item. */
    List_t * const pxList = pxItemToRemove->pxContainer;
 80020f6:	6902      	ldr	r2, [r0, #16]
{
 80020f8:	b410      	push	{r4}

    /* Only used during decision coverage testing. */
    mtCOVERAGE_TEST_DELAY();

    /* Make sure the index is left pointing to a valid item. */
    if( pxList->pxIndex == pxItemToRemove )
 80020fa:	6854      	ldr	r4, [r2, #4]
    pxItemToRemove->pxNext->pxPrevious = pxItemToRemove->pxPrevious;
 80020fc:	6840      	ldr	r0, [r0, #4]
 80020fe:	6899      	ldr	r1, [r3, #8]
    if( pxList->pxIndex == pxItemToRemove )
 8002100:	429c      	cmp	r4, r3
    pxItemToRemove->pxNext->pxPrevious = pxItemToRemove->pxPrevious;
 8002102:	6081      	str	r1, [r0, #8]
    pxItemToRemove->pxPrevious->pxNext = pxItemToRemove->pxNext;
 8002104:	6048      	str	r0, [r1, #4]
    {
        pxList->pxIndex = pxItemToRemove->pxPrevious;
 8002106:	bf08      	it	eq
 8002108:	6051      	streq	r1, [r2, #4]
    else
    {
        mtCOVERAGE_TEST_MARKER();
    }

    pxItemToRemove->pxContainer = NULL;
 800210a:	2100      	movs	r1, #0
    ( pxList->uxNumberOfItems ) = ( UBaseType_t ) ( pxList->uxNumberOfItems - 1U );
 800210c:	6810      	ldr	r0, [r2, #0]

    traceRETURN_uxListRemove( pxList->uxNumberOfItems );

    return pxList->uxNumberOfItems;
}
 800210e:	f85d 4b04 	ldr.w	r4, [sp], #4
    ( pxList->uxNumberOfItems ) = ( UBaseType_t ) ( pxList->uxNumberOfItems - 1U );
 8002112:	3801      	subs	r0, #1
    pxItemToRemove->pxContainer = NULL;
 8002114:	6119      	str	r1, [r3, #16]
    ( pxList->uxNumberOfItems ) = ( UBaseType_t ) ( pxList->uxNumberOfItems - 1U );
 8002116:	6010      	str	r0, [r2, #0]
}
 8002118:	4770      	bx	lr
 800211a:	bf00      	nop
 800211c:	0000      	movs	r0, r0
	...

08002120 <main>:
  * @brief  Main program
  * @param  None
  * @retval None
  */
int main(void)
{
 8002120:	b5d0      	push	{r4, r6, r7, lr}

	uint8_t c = 0;
 8002122:	2400      	movs	r4, #0
{
 8002124:	b09c      	sub	sp, #112	; 0x70
	uint8_t c = 0;
 8002126:	f88d 4003 	strb.w	r4, [sp, #3]
	float sum = 3.141592654;

  HAL_Init();
 800212a:	f002 f897 	bl	800425c <HAL_Init>
}

static void SystemClock_Config(void)
{
  RCC_OscInitTypeDef RCC_OscInitStruct = {0};
  RCC_ClkInitTypeDef RCC_ClkInitStruct = {0};
 800212e:	e9cd 4402 	strd	r4, r4, [sp, #8]
 8002132:	e9cd 4404 	strd	r4, r4, [sp, #16]
 8002136:	e9cd 4406 	strd	r4, r4, [sp, #24]
  RCC_OscInitTypeDef RCC_OscInitStruct = {0};
 800213a:	e9cd 440b 	strd	r4, r4, [sp, #44]	; 0x2c
 800213e:	e9cd 440d 	strd	r4, r4, [sp, #52]	; 0x34
 8002142:	e9cd 440f 	strd	r4, r4, [sp, #60]	; 0x3c

  /** Configure the main internal regulator output voltage
  */
  __HAL_PWR_VOLTAGESCALING_CONFIG(PWR_REGULATOR_VOLTAGE_SCALE0);
 8002146:	4a44      	ldr	r2, [pc, #272]	; (8002258 <main+0x138>)
  RCC_OscInitTypeDef RCC_OscInitStruct = {0};
 8002148:	940a      	str	r4, [sp, #40]	; 0x28
  __HAL_PWR_VOLTAGESCALING_CONFIG(PWR_REGULATOR_VOLTAGE_SCALE0);
 800214a:	6913      	ldr	r3, [r2, #16]
 800214c:	f043 0330 	orr.w	r3, r3, #48	; 0x30
 8002150:	6113      	str	r3, [r2, #16]
 8002152:	6913      	ldr	r3, [r2, #16]
 8002154:	f003 0330 	and.w	r3, r3, #48	; 0x30
 8002158:	9301      	str	r3, [sp, #4]
 800215a:	9b01      	ldr	r3, [sp, #4]

  while(!__HAL_PWR_GET_FLAG(PWR_FLAG_VOSRDY)) {}
 800215c:	6953      	ldr	r3, [r2, #20]
 800215e:	071b      	lsls	r3, r3, #28
 8002160:	d5fc      	bpl.n	800215c <main+0x3c>
  * in the RCC_OscInitTypeDef structure.
  */
  RCC_OscInitStruct.OscillatorType = RCC_OSCILLATORTYPE_HSI48|RCC_OSCILLATORTYPE_HSE;
  RCC_OscInitStruct.HSEState = RCC_HSE_ON;
  RCC_OscInitStruct.HSI48State = RCC_HSI48_ON;
  RCC_OscInitStruct.PLL.PLLState = RCC_PLL_ON;
 8002162:	2302      	movs	r3, #2
  RCC_OscInitStruct.OscillatorType = RCC_OSCILLATORTYPE_HSI48|RCC_OSCILLATORTYPE_HSE;
 8002164:	2021      	movs	r0, #33	; 0x21
  RCC_OscInitStruct.HSEState = RCC_HSE_ON;
 8002166:	f44f 3180 	mov.w	r1, #65536	; 0x10000
  RCC_OscInitStruct.HSI48State = RCC_HSI48_ON;
 800216a:	f44f 5480 	mov.w	r4, #4096	; 0x1000
  RCC_OscInitStruct.HSEState = RCC_HSE_ON;
 800216e:	e9cd 0108 	strd	r0, r1, [sp, #32]
  RCC_OscInitStruct.PLL.PLLN = 40;
  RCC_OscInitStruct.PLL.PLLP = 2;
  RCC_OscInitStruct.PLL.PLLQ = 2;
  RCC_OscInitStruct.PLL.PLLR = 2;
  RCC_OscInitStruct.PLL.PLLRGE = RCC_PLL1_VCIRANGE_3;
  RCC_OscInitStruct.PLL.PLLVCOSEL = RCC_PLL1_VCORANGE_WIDE;
 8002172:	2200      	movs	r2, #0
  RCC_OscInitStruct.PLL.PLLN = 40;
 8002174:	2128      	movs	r1, #40	; 0x28
  RCC_OscInitStruct.PLL.PLLQ = 2;
 8002176:	e9cd 3316 	strd	r3, r3, [sp, #88]	; 0x58
  RCC_OscInitStruct.HSI48State = RCC_HSI48_ON;
 800217a:	9411      	str	r4, [sp, #68]	; 0x44
  RCC_OscInitStruct.PLL.PLLState = RCC_PLL_ON;
 800217c:	9312      	str	r3, [sp, #72]	; 0x48
  RCC_OscInitStruct.PLL.PLLM = 2;
 800217e:	9314      	str	r3, [sp, #80]	; 0x50
  RCC_OscInitStruct.PLL.PLLR = 2;
 8002180:	9318      	str	r3, [sp, #96]	; 0x60
  RCC_OscInitStruct.PLL.PLLSource = RCC_PLL1_SOURCE_HSE;
 8002182:	2403      	movs	r4, #3
  RCC_OscInitStruct.PLL.PLLRGE = RCC_PLL1_VCIRANGE_3;
 8002184:	230c      	movs	r3, #12
  RCC_OscInitStruct.PLL.PLLFRACN = 0;
  if (HAL_RCC_OscConfig(&RCC_OscInitStruct) != HAL_OK)
 8002186:	a808      	add	r0, sp, #32
  RCC_OscInitStruct.PLL.PLLRGE = RCC_PLL1_VCIRANGE_3;
 8002188:	9319      	str	r3, [sp, #100]	; 0x64
  RCC_OscInitStruct.PLL.PLLFRACN = 0;
 800218a:	e9cd 221a 	strd	r2, r2, [sp, #104]	; 0x68
  RCC_OscInitStruct.PLL.PLLSource = RCC_PLL1_SOURCE_HSE;
 800218e:	9413      	str	r4, [sp, #76]	; 0x4c
  RCC_OscInitStruct.PLL.PLLN = 40;
 8002190:	9115      	str	r1, [sp, #84]	; 0x54
  if (HAL_RCC_OscConfig(&RCC_OscInitStruct) != HAL_OK)
 8002192:	f003 f843 	bl	800521c <HAL_RCC_OscConfig>
 8002196:	4603      	mov	r3, r0
 8002198:	b100      	cbz	r0, 800219c <main+0x7c>
  * @retval None
  */
void Error_Handler(void)
{
  /* User may add here some code to deal with this error */
  while(1)
 800219a:	e7fe      	b.n	800219a <main+0x7a>
  RCC_ClkInitStruct.ClockType = RCC_CLOCKTYPE_HCLK|RCC_CLOCKTYPE_SYSCLK
 800219c:	221f      	movs	r2, #31
  if (HAL_RCC_ClockConfig(&RCC_ClkInitStruct, FLASH_LATENCY_5) != HAL_OK)
 800219e:	2105      	movs	r1, #5
 80021a0:	a802      	add	r0, sp, #8
  RCC_ClkInitStruct.AHBCLKDivider = RCC_SYSCLK_DIV1;
 80021a2:	e9cd 4303 	strd	r4, r3, [sp, #12]
  RCC_ClkInitStruct.APB2CLKDivider = RCC_HCLK_DIV1;
 80021a6:	e9cd 3305 	strd	r3, r3, [sp, #20]
  RCC_ClkInitStruct.APB3CLKDivider = RCC_HCLK_DIV1;
 80021aa:	9307      	str	r3, [sp, #28]
  RCC_ClkInitStruct.ClockType = RCC_CLOCKTYPE_HCLK|RCC_CLOCKTYPE_SYSCLK
 80021ac:	9202      	str	r2, [sp, #8]
  if (HAL_RCC_ClockConfig(&RCC_ClkInitStruct, FLASH_LATENCY_5) != HAL_OK)
 80021ae:	f002 fed5 	bl	8004f5c <HAL_RCC_ClockConfig>
 80021b2:	2800      	cmp	r0, #0
 80021b4:	d148      	bne.n	8002248 <main+0x128>
  __HAL_FLASH_SET_PROGRAM_DELAY(FLASH_PROGRAMMING_DELAY_2);
 80021b6:	4a29      	ldr	r2, [pc, #164]	; (800225c <main+0x13c>)
 80021b8:	6813      	ldr	r3, [r2, #0]
 80021ba:	f023 0330 	bic.w	r3, r3, #48	; 0x30
 80021be:	f043 0320 	orr.w	r3, r3, #32
 80021c2:	6013      	str	r3, [r2, #0]
  bsp_led_init();
 80021c4:	f7ff f908 	bl	80013d8 <bsp_led_init>
  bsp_lcd_init();
 80021c8:	f7ff f86a 	bl	80012a0 <bsp_lcd_init>
  MX_SPI2_Init();
 80021cc:	f7fe ffd0 	bl	8001170 <MX_SPI2_Init>
  if (HAL_ICACHE_Enable() != HAL_OK)
 80021d0:	f002 fe04 	bl	8004ddc <HAL_ICACHE_Enable>
 80021d4:	4604      	mov	r4, r0
 80021d6:	bbc0      	cbnz	r0, 800224a <main+0x12a>
	rt_kprintf("UART CNT:%d %lf\r\n",c,sum);
 80021d8:	a71d      	add	r7, pc, #116	; (adr r7, 8002250 <main+0x130>)
 80021da:	e9d7 6700 	ldrd	r6, r7, [r7]
  MX_GPDMA1_Init();
 80021de:	f7ff fdf1 	bl	8001dc4 <MX_GPDMA1_Init>
  MX_USART2_UART_Init();
 80021e2:	f7ff f979 	bl	80014d8 <MX_USART2_UART_Init>
  MX_UART4_Init();
 80021e6:	f7ff f933 	bl	8001450 <MX_UART4_Init>
  LCD_Init(1);
 80021ea:	2001      	movs	r0, #1
 80021ec:	f001 fea2 	bl	8003f34 <LCD_Init>
  Draw_Init();
 80021f0:	f7ff fb18 	bl	8001824 <Draw_Init>
  Draw_Clear(0);
 80021f4:	4620      	mov	r0, r4
 80021f6:	f7ff fb1d 	bl	8001834 <Draw_Clear>
  rt_kprintf("Hello World! \r\n");
 80021fa:	4819      	ldr	r0, [pc, #100]	; (8002260 <main+0x140>)
 80021fc:	f7ff ff36 	bl	800206c <rt_kprintf>
  MX_FREERTOS_Init();
 8002200:	f7fe ff96 	bl	8001130 <MX_FREERTOS_Init>
  vTaskStartScheduler();
 8002204:	f009 f940 	bl	800b488 <vTaskStartScheduler>
	HAL_UART_Transmit_DMA(&huart2, &c, 1);
 8002208:	4c16      	ldr	r4, [pc, #88]	; (8002264 <main+0x144>)
	bsp_led_toggle();
 800220a:	f7ff f919 	bl	8001440 <bsp_led_toggle>
	HAL_UART_Transmit_DMA(&huart2, &c, 1);
 800220e:	2201      	movs	r2, #1
 8002210:	f10d 0103 	add.w	r1, sp, #3
 8002214:	4620      	mov	r0, r4
 8002216:	f007 ff8b 	bl	800a130 <HAL_UART_Transmit_DMA>
	HAL_UART_Transmit_DMA(&huart4, &c, 1);
 800221a:	2201      	movs	r2, #1
 800221c:	f10d 0103 	add.w	r1, sp, #3
 8002220:	4811      	ldr	r0, [pc, #68]	; (8002268 <main+0x148>)
 8002222:	f007 ff85 	bl	800a130 <HAL_UART_Transmit_DMA>
	rt_kprintf("UART CNT:%d %lf\r\n",c,sum);
 8002226:	463b      	mov	r3, r7
 8002228:	4632      	mov	r2, r6
 800222a:	f89d 1003 	ldrb.w	r1, [sp, #3]
 800222e:	480f      	ldr	r0, [pc, #60]	; (800226c <main+0x14c>)
 8002230:	f7ff ff1c 	bl	800206c <rt_kprintf>
    HAL_Delay(500);
 8002234:	f44f 70fa 	mov.w	r0, #500	; 0x1f4
 8002238:	f002 f8e4 	bl	8004404 <HAL_Delay>
	c++;
 800223c:	f89d 3003 	ldrb.w	r3, [sp, #3]
 8002240:	3301      	adds	r3, #1
 8002242:	f88d 3003 	strb.w	r3, [sp, #3]
  while (1)
 8002246:	e7e0      	b.n	800220a <main+0xea>
  while(1)
 8002248:	e7fe      	b.n	8002248 <main+0x128>
 800224a:	e7fe      	b.n	800224a <main+0x12a>
 800224c:	f3af 8000 	nop.w
 8002250:	60000000 	.word	0x60000000
 8002254:	400921fb 	.word	0x400921fb
 8002258:	44020800 	.word	0x44020800
 800225c:	40022000 	.word	0x40022000
 8002260:	0800dd4c 	.word	0x0800dd4c
 8002264:	20000ae0 	.word	0x20000ae0
 8002268:	20000b74 	.word	0x20000b74
 800226c:	0800dd5c 	.word	0x0800dd5c

08002270 <Error_Handler>:
 8002270:	e7fe      	b.n	8002270 <Error_Handler>
 8002272:	bf00      	nop

08002274 <HAL_TIM_PeriodElapsedCallback>:
void HAL_TIM_PeriodElapsedCallback(TIM_HandleTypeDef *htim)
{
  /* USER CODE BEGIN Callback 0 */

  /* USER CODE END Callback 0 */
  if (htim->Instance == TIM6) {
 8002274:	4b03      	ldr	r3, [pc, #12]	; (8002284 <HAL_TIM_PeriodElapsedCallback+0x10>)
 8002276:	6802      	ldr	r2, [r0, #0]
 8002278:	429a      	cmp	r2, r3
 800227a:	d000      	beq.n	800227e <HAL_TIM_PeriodElapsedCallback+0xa>
    HAL_IncTick();
  }
  /* USER CODE BEGIN Callback 1 */

  /* USER CODE END Callback 1 */
}
 800227c:	4770      	bx	lr
    HAL_IncTick();
 800227e:	f002 b813 	b.w	80042a8 <HAL_IncTick>
 8002282:	bf00      	nop
 8002284:	40001000 	.word	0x40001000

08002288 <prvTaskExitError>:
}
/*-----------------------------------------------------------*/

static void prvTaskExitError( void )
{
    volatile uint32_t ulDummy = 0UL;
 8002288:	2200      	movs	r2, #0
{
 800228a:	b500      	push	{lr}
    /* A function that implements a task must not exit or attempt to return to
     * its caller as there is nothing to return to. If a task wants to exit it
     * should instead call vTaskDelete( NULL ). Artificially force an assert()
     * to be triggered if configASSERT() is defined, then stop here so
     * application writers can catch the error. */
    configASSERT( ulCriticalNesting == ~0UL );
 800228c:	4b08      	ldr	r3, [pc, #32]	; (80022b0 <prvTaskExitError+0x28>)
{
 800228e:	b083      	sub	sp, #12
    volatile uint32_t ulDummy = 0UL;
 8002290:	9201      	str	r2, [sp, #4]
    configASSERT( ulCriticalNesting == ~0UL );
 8002292:	681b      	ldr	r3, [r3, #0]
 8002294:	3301      	adds	r3, #1
 8002296:	d002      	beq.n	800229e <prvTaskExitError+0x16>
 8002298:	f000 f95c 	bl	8002554 <ulSetInterruptMask>
 800229c:	e7fe      	b.n	800229c <prvTaskExitError+0x14>
    portDISABLE_INTERRUPTS();
 800229e:	f000 f959 	bl	8002554 <ulSetInterruptMask>

    while( ulDummy == 0 )
 80022a2:	9b01      	ldr	r3, [sp, #4]
 80022a4:	2b00      	cmp	r3, #0
 80022a6:	d0fc      	beq.n	80022a2 <prvTaskExitError+0x1a>
         * warnings about code appearing after this function is called - making
         * ulDummy volatile makes the compiler think the function could return
         * and therefore not output an 'unreachable code' warning for code that
         * appears after it. */
    }
}
 80022a8:	b003      	add	sp, #12
 80022aa:	f85d fb04 	ldr.w	pc, [sp], #4
 80022ae:	bf00      	nop
 80022b0:	20000000 	.word	0x20000000

080022b4 <vPortSetupTimerInterrupt>:
{
 80022b4:	b410      	push	{r4}
    portNVIC_SYSTICK_CTRL_REG = portNVIC_SYSTICK_CLK_BIT_CONFIG;
 80022b6:	f04f 23e0 	mov.w	r3, #3758153728	; 0xe000e000
 80022ba:	2404      	movs	r4, #4
    portNVIC_SYSTICK_CURRENT_VALUE_REG = 0UL;
 80022bc:	2000      	movs	r0, #0
    portNVIC_SYSTICK_CTRL_REG = portNVIC_SYSTICK_CLK_BIT_CONFIG | portNVIC_SYSTICK_INT_BIT | portNVIC_SYSTICK_ENABLE_BIT;
 80022be:	2207      	movs	r2, #7
    portNVIC_SYSTICK_LOAD_REG = ( configSYSTICK_CLOCK_HZ / configTICK_RATE_HZ ) - 1UL;
 80022c0:	4903      	ldr	r1, [pc, #12]	; (80022d0 <vPortSetupTimerInterrupt+0x1c>)
    portNVIC_SYSTICK_CTRL_REG = portNVIC_SYSTICK_CLK_BIT_CONFIG;
 80022c2:	611c      	str	r4, [r3, #16]
    portNVIC_SYSTICK_CURRENT_VALUE_REG = 0UL;
 80022c4:	6198      	str	r0, [r3, #24]
}
 80022c6:	f85d 4b04 	ldr.w	r4, [sp], #4
    portNVIC_SYSTICK_LOAD_REG = ( configSYSTICK_CLOCK_HZ / configTICK_RATE_HZ ) - 1UL;
 80022ca:	6159      	str	r1, [r3, #20]
    portNVIC_SYSTICK_CTRL_REG = portNVIC_SYSTICK_CLK_BIT_CONFIG | portNVIC_SYSTICK_INT_BIT | portNVIC_SYSTICK_ENABLE_BIT;
 80022cc:	611a      	str	r2, [r3, #16]
}
 80022ce:	4770      	bx	lr
 80022d0:	0003d08f 	.word	0x0003d08f

080022d4 <vPortYield>:
/*-----------------------------------------------------------*/

void vPortYield( void ) /* PRIVILEGED_FUNCTION */
{
    /* Set a PendSV to request a context switch. */
    portNVIC_INT_CTRL_REG = portNVIC_PENDSVSET_BIT;
 80022d4:	f04f 23e0 	mov.w	r3, #3758153728	; 0xe000e000
 80022d8:	f04f 5280 	mov.w	r2, #268435456	; 0x10000000
 80022dc:	f8c3 2d04 	str.w	r2, [r3, #3332]	; 0xd04

    /* Barriers are normally not required but do ensure the code is
     * completely within the specified behaviour for the architecture. */
    __asm volatile ( "dsb" ::: "memory" );
 80022e0:	f3bf 8f4f 	dsb	sy
    __asm volatile ( "isb" );
 80022e4:	f3bf 8f6f 	isb	sy
}
 80022e8:	4770      	bx	lr
 80022ea:	bf00      	nop

080022ec <vPortEnterCritical>:
/*-----------------------------------------------------------*/

void vPortEnterCritical( void ) /* PRIVILEGED_FUNCTION */
{
 80022ec:	b508      	push	{r3, lr}
    portDISABLE_INTERRUPTS();
 80022ee:	f000 f931 	bl	8002554 <ulSetInterruptMask>
    ulCriticalNesting++;
 80022f2:	4a04      	ldr	r2, [pc, #16]	; (8002304 <vPortEnterCritical+0x18>)
 80022f4:	6813      	ldr	r3, [r2, #0]
 80022f6:	3301      	adds	r3, #1
 80022f8:	6013      	str	r3, [r2, #0]

    /* Barriers are normally not required but do ensure the code is
     * completely within the specified behaviour for the architecture. */
    __asm volatile ( "dsb" ::: "memory" );
 80022fa:	f3bf 8f4f 	dsb	sy
    __asm volatile ( "isb" );
 80022fe:	f3bf 8f6f 	isb	sy
}
 8002302:	bd08      	pop	{r3, pc}
 8002304:	20000000 	.word	0x20000000

08002308 <vPortExitCritical>:
/*-----------------------------------------------------------*/

void vPortExitCritical( void ) /* PRIVILEGED_FUNCTION */
{
 8002308:	b508      	push	{r3, lr}
    configASSERT( ulCriticalNesting );
 800230a:	4b08      	ldr	r3, [pc, #32]	; (800232c <vPortExitCritical+0x24>)
 800230c:	681a      	ldr	r2, [r3, #0]
 800230e:	b14a      	cbz	r2, 8002324 <vPortExitCritical+0x1c>
    ulCriticalNesting--;
 8002310:	681a      	ldr	r2, [r3, #0]
 8002312:	3a01      	subs	r2, #1
 8002314:	601a      	str	r2, [r3, #0]

    if( ulCriticalNesting == 0 )
 8002316:	6818      	ldr	r0, [r3, #0]
 8002318:	b100      	cbz	r0, 800231c <vPortExitCritical+0x14>
    {
        portENABLE_INTERRUPTS();
    }
}
 800231a:	bd08      	pop	{r3, pc}
 800231c:	e8bd 4008 	ldmia.w	sp!, {r3, lr}
        portENABLE_INTERRUPTS();
 8002320:	f000 b924 	b.w	800256c <vClearInterruptMask>
    configASSERT( ulCriticalNesting );
 8002324:	f000 f916 	bl	8002554 <ulSetInterruptMask>
 8002328:	e7fe      	b.n	8002328 <vPortExitCritical+0x20>
 800232a:	bf00      	nop
 800232c:	20000000 	.word	0x20000000

08002330 <SysTick_Handler>:
/*-----------------------------------------------------------*/

void SysTick_Handler( void ) /* PRIVILEGED_FUNCTION */
{
 8002330:	b510      	push	{r4, lr}
    uint32_t ulPreviousMask;

    ulPreviousMask = portSET_INTERRUPT_MASK_FROM_ISR();
 8002332:	f000 f90f 	bl	8002554 <ulSetInterruptMask>
 8002336:	4604      	mov	r4, r0
    traceISR_ENTER();
    {
        /* Increment the RTOS tick. */
        if( xTaskIncrementTick() != pdFALSE )
 8002338:	f009 f90c 	bl	800b554 <xTaskIncrementTick>
 800233c:	b128      	cbz	r0, 800234a <SysTick_Handler+0x1a>
        {
            traceISR_EXIT_TO_SCHEDULER();
            /* Pend a context switch. */
            portNVIC_INT_CTRL_REG = portNVIC_PENDSVSET_BIT;
 800233e:	f04f 23e0 	mov.w	r3, #3758153728	; 0xe000e000
 8002342:	f04f 5280 	mov.w	r2, #268435456	; 0x10000000
 8002346:	f8c3 2d04 	str.w	r2, [r3, #3332]	; 0xd04
        else
        {
            traceISR_EXIT();
        }
    }
    portCLEAR_INTERRUPT_MASK_FROM_ISR( ulPreviousMask );
 800234a:	4620      	mov	r0, r4
}
 800234c:	e8bd 4010 	ldmia.w	sp!, {r4, lr}
    portCLEAR_INTERRUPT_MASK_FROM_ISR( ulPreviousMask );
 8002350:	f000 b90c 	b.w	800256c <vClearInterruptMask>

08002354 <vPortSVCHandler_C>:
/*-----------------------------------------------------------*/

void vPortSVCHandler_C( uint32_t * pulCallerStackAddress ) /* PRIVILEGED_FUNCTION portDONT_DISCARD */
{
 8002354:	b508      	push	{r3, lr}
    uint8_t ucSVCNumber;

    /* Register are stored on the stack in the following order - R0, R1, R2, R3,
     * R12, LR, PC, xPSR. */
    ulPC = pulCallerStackAddress[ portOFFSET_TO_PC ];
    ucSVCNumber = ( ( uint8_t * ) ulPC )[ -2 ];
 8002356:	6983      	ldr	r3, [r0, #24]

    switch( ucSVCNumber )
 8002358:	f813 3c02 	ldrb.w	r3, [r3, #-2]
 800235c:	2b66      	cmp	r3, #102	; 0x66
 800235e:	d002      	beq.n	8002366 <vPortSVCHandler_C+0x12>
                    break;
            #endif /* configENABLE_MPU == 1 */

        default:
            /* Incorrect SVC call. */
            configASSERT( pdFALSE );
 8002360:	f000 f8f8 	bl	8002554 <ulSetInterruptMask>
 8002364:	e7fe      	b.n	8002364 <vPortSVCHandler_C+0x10>
        *( portCPACR ) |= ( ( portCPACR_CP10_VALUE << portCPACR_CP10_POS ) |
 8002366:	f04f 23e0 	mov.w	r3, #3758153728	; 0xe000e000
 800236a:	f8d3 2d88 	ldr.w	r2, [r3, #3464]	; 0xd88
 800236e:	f442 0270 	orr.w	r2, r2, #15728640	; 0xf00000
 8002372:	f8c3 2d88 	str.w	r2, [r3, #3464]	; 0xd88
        *( portFPCCR ) |= ( portFPCCR_ASPEN_MASK | portFPCCR_LSPEN_MASK );
 8002376:	f8d3 2f34 	ldr.w	r2, [r3, #3892]	; 0xf34
 800237a:	f042 4240 	orr.w	r2, r2, #3221225472	; 0xc0000000
 800237e:	f8c3 2f34 	str.w	r2, [r3, #3892]	; 0xf34
    }
}
 8002382:	e8bd 4008 	ldmia.w	sp!, {r3, lr}
            vRestoreContextOfFirstTask();
 8002386:	f000 b8bf 	b.w	8002508 <vRestoreContextOfFirstTask>
 800238a:	bf00      	nop

0800238c <pxPortInitialiseStack>:

    StackType_t * pxPortInitialiseStack( StackType_t * pxTopOfStack,
                                         StackType_t * pxEndOfStack,
                                         TaskFunction_t pxCode,
                                         void * pvParameters ) /* PRIVILEGED_FUNCTION */
    {
 800238c:	e92d 47f0 	stmdb	sp!, {r4, r5, r6, r7, r8, r9, sl, lr}
            #endif /* configENABLE_TRUSTZONE */
        }
        #else /* portPRELOAD_REGISTERS */
        {
            pxTopOfStack--;                                          /* Offset added to account for the way the MCU uses the stack on entry/exit of interrupts. */
            *pxTopOfStack = portINITIAL_XPSR;                        /* xPSR. */
 8002390:	f04f 7480 	mov.w	r4, #16777216	; 0x1000000
            pxTopOfStack--;
            *pxTopOfStack = ( StackType_t ) pvParameters;            /* R0. */
            pxTopOfStack--;
            *pxTopOfStack = ( StackType_t ) 0x11111111UL;            /* R11. */
            pxTopOfStack--;
            *pxTopOfStack = ( StackType_t ) 0x10101010UL;            /* R10. */
 8002394:	f04f 3710 	mov.w	r7, #269488144	; 0x10101010
            pxTopOfStack--;
            *pxTopOfStack = ( StackType_t ) 0x09090909UL;            /* R09. */
 8002398:	f04f 3509 	mov.w	r5, #151587081	; 0x9090909
            *pxTopOfStack = portINITIAL_XPSR;                        /* xPSR. */
 800239c:	f840 4c04 	str.w	r4, [r0, #-4]
            pxTopOfStack--;
            *pxTopOfStack = ( StackType_t ) 0x08080808UL;            /* R08. */
            pxTopOfStack--;
            *pxTopOfStack = ( StackType_t ) 0x07070707UL;            /* R07. */
 80023a0:	f04f 3407 	mov.w	r4, #117901063	; 0x7070707
            *pxTopOfStack = ( StackType_t ) 0x09090909UL;            /* R09. */
 80023a4:	e940 570b 	strd	r5, r7, [r0, #-44]	; 0x2c
            *pxTopOfStack = ( StackType_t ) portTASK_RETURN_ADDRESS; /* LR. */
 80023a8:	4d16      	ldr	r5, [pc, #88]	; (8002404 <pxPortInitialiseStack+0x78>)
            *pxTopOfStack = ( StackType_t ) 0x07070707UL;            /* R07. */
 80023aa:	f840 4c34 	str.w	r4, [r0, #-52]
            *pxTopOfStack = ( StackType_t ) pxCode;                  /* PC. */
 80023ae:	e940 5203 	strd	r5, r2, [r0, #-12]
            *pxTopOfStack = ( StackType_t ) 0x11111111UL;            /* R11. */
 80023b2:	f04f 3c11 	mov.w	ip, #286331153	; 0x11111111
            pxTopOfStack--;
            *pxTopOfStack = ( StackType_t ) 0x06060606UL;            /* R06. */
 80023b6:	f04f 3406 	mov.w	r4, #101058054	; 0x6060606
            pxTopOfStack--;
            *pxTopOfStack = ( StackType_t ) 0x05050505UL;            /* R05. */
 80023ba:	f04f 3205 	mov.w	r2, #84215045	; 0x5050505
            *pxTopOfStack = ( StackType_t ) 0x11111111UL;            /* R11. */
 80023be:	e940 c309 	strd	ip, r3, [r0, #-36]	; 0x24
            *pxTopOfStack = ( StackType_t ) 0x05050505UL;            /* R05. */
 80023c2:	e940 240f 	strd	r2, r4, [r0, #-60]	; 0x3c
            pxTopOfStack--;
            *pxTopOfStack = ( StackType_t ) 0x04040404UL;            /* R04. */
            pxTopOfStack--;
            *pxTopOfStack = portINITIAL_EXC_RETURN;                  /* EXC_RETURN. */
            pxTopOfStack--;
            *pxTopOfStack = ( StackType_t ) pxEndOfStack;            /* Slot used to hold this task's PSPLIM value. */
 80023c6:	4603      	mov	r3, r0
            *pxTopOfStack = ( StackType_t ) 0x12121212UL;            /* R12. */
 80023c8:	f04f 3a12 	mov.w	sl, #303174162	; 0x12121212
            *pxTopOfStack = ( StackType_t ) 0x03030303UL;            /* R3. */
 80023cc:	f04f 3903 	mov.w	r9, #50529027	; 0x3030303
            *pxTopOfStack = ( StackType_t ) 0x02020202UL;            /* R2. */
 80023d0:	f04f 3802 	mov.w	r8, #33686018	; 0x2020202
            *pxTopOfStack = ( StackType_t ) 0x01010101UL;            /* R1. */
 80023d4:	f04f 3e01 	mov.w	lr, #16843009	; 0x1010101
            *pxTopOfStack = ( StackType_t ) 0x08080808UL;            /* R08. */
 80023d8:	f04f 3608 	mov.w	r6, #134744072	; 0x8080808
            *pxTopOfStack = ( StackType_t ) 0x04040404UL;            /* R04. */
 80023dc:	f04f 3504 	mov.w	r5, #67372036	; 0x4040404
            *pxTopOfStack = portINITIAL_EXC_RETURN;                  /* EXC_RETURN. */
 80023e0:	f06f 0202 	mvn.w	r2, #2
            *pxTopOfStack = ( StackType_t ) 0x03030303UL;            /* R3. */
 80023e4:	e940 9a05 	strd	r9, sl, [r0, #-20]
            *pxTopOfStack = ( StackType_t ) 0x01010101UL;            /* R1. */
 80023e8:	e940 e807 	strd	lr, r8, [r0, #-28]
            *pxTopOfStack = ( StackType_t ) 0x08080808UL;            /* R08. */
 80023ec:	f840 6c30 	str.w	r6, [r0, #-48]
            *pxTopOfStack = ( StackType_t ) 0x04040404UL;            /* R04. */
 80023f0:	f840 5c40 	str.w	r5, [r0, #-64]
            *pxTopOfStack = portINITIAL_EXC_RETURN;                  /* EXC_RETURN. */
 80023f4:	f840 2c44 	str.w	r2, [r0, #-68]
            *pxTopOfStack = ( StackType_t ) pxEndOfStack;            /* Slot used to hold this task's PSPLIM value. */
 80023f8:	f843 1d48 	str.w	r1, [r3, #-72]!
            #endif /* configENABLE_TRUSTZONE */
        }
        #endif /* portPRELOAD_REGISTERS */

        return pxTopOfStack;
    }
 80023fc:	4618      	mov	r0, r3
 80023fe:	e8bd 87f0 	ldmia.w	sp!, {r4, r5, r6, r7, r8, r9, sl, pc}
 8002402:	bf00      	nop
 8002404:	08002289 	.word	0x08002289

08002408 <xPortStartScheduler>:
     * configCHECK_HANDLER_INSTALLATION to 0 in their FreeRTOSConfig.h. Direct
     * routing, which is validated here when configCHECK_HANDLER_INSTALLATION
     * is 1, should be preferred when possible. */
    #if ( configCHECK_HANDLER_INSTALLATION == 1 )
    {
        const portISR_t * const pxVectorTable = portSCB_VTOR_REG;
 8002408:	f04f 23e0 	mov.w	r3, #3758153728	; 0xe000e000
{
 800240c:	b530      	push	{r4, r5, lr}
        const portISR_t * const pxVectorTable = portSCB_VTOR_REG;
 800240e:	f8d3 2d08 	ldr.w	r2, [r3, #3336]	; 0xd08
         * https://www.FreeRTOS.org/FAQHelp.html.
         *
         * Systems with a configurable address for the interrupt vector table
         * can also encounter assertion failures or even system faults here if
         * VTOR is not set correctly to point to the application's vector table. */
        configASSERT( pxVectorTable[ portVECTOR_INDEX_SVC ] == SVC_Handler );
 8002412:	4938      	ldr	r1, [pc, #224]	; (80024f4 <xPortStartScheduler+0xec>)
 8002414:	6ad0      	ldr	r0, [r2, #44]	; 0x2c
{
 8002416:	b085      	sub	sp, #20
        configASSERT( pxVectorTable[ portVECTOR_INDEX_SVC ] == SVC_Handler );
 8002418:	4288      	cmp	r0, r1
 800241a:	d002      	beq.n	8002422 <xPortStartScheduler+0x1a>
 800241c:	f000 f89a 	bl	8002554 <ulSetInterruptMask>
 8002420:	e7fe      	b.n	8002420 <xPortStartScheduler+0x18>
        configASSERT( pxVectorTable[ portVECTOR_INDEX_PENDSV ] == PendSV_Handler );
 8002422:	4935      	ldr	r1, [pc, #212]	; (80024f8 <xPortStartScheduler+0xf0>)
 8002424:	6b92      	ldr	r2, [r2, #56]	; 0x38
 8002426:	428a      	cmp	r2, r1
 8002428:	d002      	beq.n	8002430 <xPortStartScheduler+0x28>
 800242a:	f000 f893 	bl	8002554 <ulSetInterruptMask>
 800242e:	e7fe      	b.n	800242e <xPortStartScheduler+0x26>
    }
    #endif /* configCHECK_HANDLER_INSTALLATION */

    #if ( ( configASSERT_DEFINED == 1 ) && ( portHAS_ARMV8M_MAIN_EXTENSION == 1 ) )
    {
        volatile uint32_t ulImplementedPrioBits = 0;
 8002430:	2000      	movs	r0, #0
         * "FromISR". FreeRTOS maintains separate thread and ISR API functions to
         * ensure interrupt entry is as fast and simple as possible.
         *
         * First, determine the number of priority bits available. Write to all
         * possible bits in the priority setting for SVCall. */
        portNVIC_SHPR2_REG = 0xFF000000;
 8002432:	f04f 417f 	mov.w	r1, #4278190080	; 0xff000000
        volatile uint32_t ulImplementedPrioBits = 0;
 8002436:	9002      	str	r0, [sp, #8]
        portNVIC_SHPR2_REG = 0xFF000000;
 8002438:	f8c3 1d1c 	str.w	r1, [r3, #3356]	; 0xd1c

        /* Read the value back to see how many bits stuck. */
        ucMaxPriorityValue = ( uint8_t ) ( ( portNVIC_SHPR2_REG & 0xFF000000 ) >> 24 );
 800243c:	f8d3 3d1c 	ldr.w	r3, [r3, #3356]	; 0xd1c

        /* Use the same mask on the maximum system call priority. */
        ucMaxSysCallPriority = configMAX_SYSCALL_INTERRUPT_PRIORITY & ucMaxPriorityValue;
 8002440:	4a2e      	ldr	r2, [pc, #184]	; (80024fc <xPortStartScheduler+0xf4>)
        ucMaxPriorityValue = ( uint8_t ) ( ( portNVIC_SHPR2_REG & 0xFF000000 ) >> 24 );
 8002442:	0e1b      	lsrs	r3, r3, #24
 8002444:	f88d 3007 	strb.w	r3, [sp, #7]
        ucMaxSysCallPriority = configMAX_SYSCALL_INTERRUPT_PRIORITY & ucMaxPriorityValue;
 8002448:	f89d 3007 	ldrb.w	r3, [sp, #7]
 800244c:	f003 0350 	and.w	r3, r3, #80	; 0x50
 8002450:	7013      	strb	r3, [r2, #0]
         * accounting for the number of priority bits supported by the
         * hardware. A priority of 0 is invalid because setting the BASEPRI
         * register to 0 unmasks all interrupts, and interrupts with priority 0
         * cannot be masked using BASEPRI.
         * See https://www.FreeRTOS.org/RTOS-Cortex-M3-M4.html */
        configASSERT( ucMaxSysCallPriority );
 8002452:	2b00      	cmp	r3, #0
 8002454:	d03e      	beq.n	80024d4 <xPortStartScheduler+0xcc>

        /* Check that the bits not implemented in hardware are zero in
         * configMAX_SYSCALL_INTERRUPT_PRIORITY. */
        configASSERT( ( configMAX_SYSCALL_INTERRUPT_PRIORITY & ( uint8_t ) ( ~( uint32_t ) ucMaxPriorityValue ) ) == 0U );
 8002456:	f89d 3007 	ldrb.w	r3, [sp, #7]
 800245a:	43db      	mvns	r3, r3
 800245c:	f013 0f50 	tst.w	r3, #80	; 0x50
 8002460:	d009      	beq.n	8002476 <xPortStartScheduler+0x6e>
 8002462:	e03a      	b.n	80024da <xPortStartScheduler+0xd2>

        /* Calculate the maximum acceptable priority group value for the number
         * of bits read back. */
        while( ( ucMaxPriorityValue & portTOP_BIT_OF_BYTE ) == portTOP_BIT_OF_BYTE )
        {
            ulImplementedPrioBits++;
 8002464:	9b02      	ldr	r3, [sp, #8]
 8002466:	3301      	adds	r3, #1
 8002468:	9302      	str	r3, [sp, #8]
            ucMaxPriorityValue <<= ( uint8_t ) 0x01;
 800246a:	f89d 3007 	ldrb.w	r3, [sp, #7]
 800246e:	005b      	lsls	r3, r3, #1
 8002470:	b2db      	uxtb	r3, r3
 8002472:	f88d 3007 	strb.w	r3, [sp, #7]
        while( ( ucMaxPriorityValue & portTOP_BIT_OF_BYTE ) == portTOP_BIT_OF_BYTE )
 8002476:	f89d 3007 	ldrb.w	r3, [sp, #7]
 800247a:	061b      	lsls	r3, r3, #24
 800247c:	d4f2      	bmi.n	8002464 <xPortStartScheduler+0x5c>
        }

        if( ulImplementedPrioBits == 8 )
 800247e:	9b02      	ldr	r3, [sp, #8]
 8002480:	2b08      	cmp	r3, #8
 8002482:	d035      	beq.n	80024f0 <xPortStartScheduler+0xe8>
            configASSERT( ( configMAX_SYSCALL_INTERRUPT_PRIORITY & 0x1U ) == 0U );
            ulMaxPRIGROUPValue = 0;
        }
        else
        {
            ulMaxPRIGROUPValue = portMAX_PRIGROUP_BITS - ulImplementedPrioBits;
 8002484:	9b02      	ldr	r3, [sp, #8]
 8002486:	f1c3 0307 	rsb	r3, r3, #7
        }

        /* Shift the priority group value back to its position within the AIRCR
         * register. */
        ulMaxPRIGROUPValue <<= portPRIGROUP_SHIFT;
 800248a:	021b      	lsls	r3, r3, #8
        ulMaxPRIGROUPValue &= portPRIORITY_GROUP_MASK;
 800248c:	f403 63e0 	and.w	r3, r3, #1792	; 0x700
    }
    #endif /* #if ( ( configASSERT_DEFINED == 1 ) && ( portHAS_ARMV8M_MAIN_EXTENSION == 1 ) ) */

    /* Make PendSV and SysTick the lowest priority interrupts, and make SVCall
     * the highest priority. */
    portNVIC_SHPR3_REG |= portNVIC_PENDSV_PRI;
 8002490:	f04f 22e0 	mov.w	r2, #3758153728	; 0xe000e000
    portNVIC_SHPR3_REG |= portNVIC_SYSTICK_PRI;
    portNVIC_SHPR2_REG = 0;
 8002494:	2400      	movs	r4, #0
        ulMaxPRIGROUPValue &= portPRIORITY_GROUP_MASK;
 8002496:	491a      	ldr	r1, [pc, #104]	; (8002500 <xPortStartScheduler+0xf8>)
    /* Start the timer that generates the tick ISR. Interrupts are disabled
     * here already. */
    vPortSetupTimerInterrupt();

    /* Initialize the critical nesting count ready for the first task. */
    ulCriticalNesting = 0;
 8002498:	4d1a      	ldr	r5, [pc, #104]	; (8002504 <xPortStartScheduler+0xfc>)
        ulMaxPRIGROUPValue &= portPRIORITY_GROUP_MASK;
 800249a:	600b      	str	r3, [r1, #0]
    portNVIC_SHPR3_REG |= portNVIC_PENDSV_PRI;
 800249c:	f8d2 3d20 	ldr.w	r3, [r2, #3360]	; 0xd20
 80024a0:	f443 037f 	orr.w	r3, r3, #16711680	; 0xff0000
 80024a4:	f8c2 3d20 	str.w	r3, [r2, #3360]	; 0xd20
    portNVIC_SHPR3_REG |= portNVIC_SYSTICK_PRI;
 80024a8:	f8d2 3d20 	ldr.w	r3, [r2, #3360]	; 0xd20
 80024ac:	f043 437f 	orr.w	r3, r3, #4278190080	; 0xff000000
 80024b0:	f8c2 3d20 	str.w	r3, [r2, #3360]	; 0xd20
    portNVIC_SHPR2_REG = 0;
 80024b4:	f8c2 4d1c 	str.w	r4, [r2, #3356]	; 0xd1c
    vPortSetupTimerInterrupt();
 80024b8:	f7ff fefc 	bl	80022b4 <vPortSetupTimerInterrupt>
    ulCriticalNesting = 0;
 80024bc:	602c      	str	r4, [r5, #0]
        xSchedulerRunning = pdTRUE;
    }
    #endif /* ( ( configENABLE_MPU == 1 ) && ( configUSE_MPU_WRAPPERS_V1 == 0 ) ) */

    /* Start the first task. */
    vStartFirstTask();
 80024be:	f000 f839 	bl	8002534 <vStartFirstTask>
     * exit error function to prevent compiler warnings about a static function
     * not being called in the case that the application writer overrides this
     * functionality by defining configTASK_RETURN_ADDRESS. Call
     * vTaskSwitchContext() so link time optimization does not remove the
     * symbol. */
    vTaskSwitchContext();
 80024c2:	f009 f857 	bl	800b574 <vTaskSwitchContext>
    volatile uint32_t ulDummy = 0UL;
 80024c6:	9403      	str	r4, [sp, #12]
    configASSERT( ulCriticalNesting == ~0UL );
 80024c8:	682b      	ldr	r3, [r5, #0]
 80024ca:	3301      	adds	r3, #1
 80024cc:	d008      	beq.n	80024e0 <xPortStartScheduler+0xd8>
 80024ce:	f000 f841 	bl	8002554 <ulSetInterruptMask>
 80024d2:	e7fe      	b.n	80024d2 <xPortStartScheduler+0xca>
        configASSERT( ucMaxSysCallPriority );
 80024d4:	f000 f83e 	bl	8002554 <ulSetInterruptMask>
 80024d8:	e7fe      	b.n	80024d8 <xPortStartScheduler+0xd0>
        configASSERT( ( configMAX_SYSCALL_INTERRUPT_PRIORITY & ( uint8_t ) ( ~( uint32_t ) ucMaxPriorityValue ) ) == 0U );
 80024da:	f000 f83b 	bl	8002554 <ulSetInterruptMask>
 80024de:	e7fe      	b.n	80024de <xPortStartScheduler+0xd6>
    portDISABLE_INTERRUPTS();
 80024e0:	f000 f838 	bl	8002554 <ulSetInterruptMask>
    while( ulDummy == 0 )
 80024e4:	9b03      	ldr	r3, [sp, #12]
 80024e6:	2b00      	cmp	r3, #0
 80024e8:	d0fc      	beq.n	80024e4 <xPortStartScheduler+0xdc>
    prvTaskExitError();

    /* Should not get here. */
    return 0;
}
 80024ea:	2000      	movs	r0, #0
 80024ec:	b005      	add	sp, #20
 80024ee:	bd30      	pop	{r4, r5, pc}
 80024f0:	2300      	movs	r3, #0
 80024f2:	e7cd      	b.n	8002490 <xPortStartScheduler+0x88>
 80024f4:	080025d9 	.word	0x080025d9
 80024f8:	0800257d 	.word	0x0800257d
 80024fc:	20001cb0 	.word	0x20001cb0
 8002500:	20001cb4 	.word	0x20001cb4
 8002504:	20000000 	.word	0x20000000

08002508 <vRestoreContextOfFirstTask>:

#else /* configENABLE_MPU */

    void vRestoreContextOfFirstTask( void ) /* __attribute__ (( naked )) PRIVILEGED_FUNCTION */
    {
        __asm volatile
 8002508:	4a09      	ldr	r2, [pc, #36]	; (8002530 <vRestoreContextOfFirstTask+0x28>)
 800250a:	6811      	ldr	r1, [r2, #0]
 800250c:	6808      	ldr	r0, [r1, #0]
 800250e:	c806      	ldmia	r0!, {r1, r2}
 8002510:	f381 880b 	msr	PSPLIM, r1
 8002514:	2102      	movs	r1, #2
 8002516:	f381 8814 	msr	CONTROL, r1
 800251a:	3020      	adds	r0, #32
 800251c:	f380 8809 	msr	PSP, r0
 8002520:	f3bf 8f6f 	isb	sy
 8002524:	f04f 0000 	mov.w	r0, #0
 8002528:	f380 8811 	msr	BASEPRI, r0
 800252c:	4710      	bx	r2
            "   isb                                             \n"
            "   mov  r0, #0                                     \n"
            "   msr  basepri, r0                                \n" /* Ensure that interrupts are enabled when the first task starts. */
            "   bx   r2                                         \n" /* Finally, branch to EXC_RETURN. */
        );
    }
 800252e:	0000      	.short	0x0000
 8002530:	20001d10 	.word	0x20001d10

08002534 <vStartFirstTask>:
}
/*-----------------------------------------------------------*/

void vStartFirstTask( void ) /* __attribute__ (( naked )) PRIVILEGED_FUNCTION */
{
    __asm volatile
 8002534:	4806      	ldr	r0, [pc, #24]	; (8002550 <vStartFirstTask+0x1c>)
 8002536:	6800      	ldr	r0, [r0, #0]
 8002538:	6800      	ldr	r0, [r0, #0]
 800253a:	f380 8808 	msr	MSP, r0
 800253e:	b662      	cpsie	i
 8002540:	b661      	cpsie	f
 8002542:	f3bf 8f4f 	dsb	sy
 8002546:	f3bf 8f6f 	isb	sy
 800254a:	df66      	svc	102	; 0x66
 800254c:	bf00      	nop
        "   isb                                             \n"
        "   svc %0                                          \n" /* System call to start the first task. */
        "   nop                                             \n"
        ::"i" ( portSVC_START_SCHEDULER ) : "memory"
    );
}
 800254e:	0000      	.short	0x0000
 8002550:	e000ed08 	.word	0xe000ed08

08002554 <ulSetInterruptMask>:
/*-----------------------------------------------------------*/

uint32_t ulSetInterruptMask( void ) /* __attribute__(( naked )) PRIVILEGED_FUNCTION */
{
    __asm volatile
 8002554:	f3ef 8011 	mrs	r0, BASEPRI
 8002558:	f04f 0150 	mov.w	r1, #80	; 0x50
 800255c:	f381 8811 	msr	BASEPRI, r1
 8002560:	f3bf 8f4f 	dsb	sy
 8002564:	f3bf 8f6f 	isb	sy
 8002568:	4770      	bx	lr
 800256a:	bf00      	nop

0800256c <vClearInterruptMask>:
}
/*-----------------------------------------------------------*/

void vClearInterruptMask( __attribute__( ( unused ) ) uint32_t ulMask ) /* __attribute__(( naked )) PRIVILEGED_FUNCTION */
{
    __asm volatile
 800256c:	f380 8811 	msr	BASEPRI, r0
 8002570:	f3bf 8f4f 	dsb	sy
 8002574:	f3bf 8f6f 	isb	sy
 8002578:	4770      	bx	lr
 800257a:	bf00      	nop

0800257c <PendSV_Handler>:

#else /* configENABLE_MPU */

    void PendSV_Handler( void ) /* __attribute__ (( naked )) PRIVILEGED_FUNCTION */
    {
        __asm volatile
 800257c:	f3ef 8009 	mrs	r0, PSP
 8002580:	f01e 0f10 	tst.w	lr, #16
 8002584:	bf08      	it	eq
 8002586:	ed20 8a10 	vstmdbeq	r0!, {s16-s31}
 800258a:	f3ef 820b 	mrs	r2, PSPLIM
 800258e:	4673      	mov	r3, lr
 8002590:	e920 0ffc 	stmdb	r0!, {r2, r3, r4, r5, r6, r7, r8, r9, sl, fp}
 8002594:	4a0f      	ldr	r2, [pc, #60]	; (80025d4 <PendSV_Handler+0x58>)
 8002596:	6811      	ldr	r1, [r2, #0]
 8002598:	6008      	str	r0, [r1, #0]
 800259a:	f04f 0050 	mov.w	r0, #80	; 0x50
 800259e:	f380 8811 	msr	BASEPRI, r0
 80025a2:	f3bf 8f4f 	dsb	sy
 80025a6:	f3bf 8f6f 	isb	sy
 80025aa:	f008 ffe3 	bl	800b574 <vTaskSwitchContext>
 80025ae:	f04f 0000 	mov.w	r0, #0
 80025b2:	f380 8811 	msr	BASEPRI, r0
 80025b6:	4a07      	ldr	r2, [pc, #28]	; (80025d4 <PendSV_Handler+0x58>)
 80025b8:	6811      	ldr	r1, [r2, #0]
 80025ba:	6808      	ldr	r0, [r1, #0]
 80025bc:	e8b0 0ffc 	ldmia.w	r0!, {r2, r3, r4, r5, r6, r7, r8, r9, sl, fp}
 80025c0:	f013 0f10 	tst.w	r3, #16
 80025c4:	bf08      	it	eq
 80025c6:	ecb0 8a10 	vldmiaeq	r0!, {s16-s31}
 80025ca:	f382 880b 	msr	PSPLIM, r2
 80025ce:	f380 8809 	msr	PSP, r0
 80025d2:	4718      	bx	r3
            "   msr psplim, r2                                  \n" /* Restore the PSPLIM register value for the task. */
            "   msr psp, r0                                     \n" /* Remember the new top of stack for the task. */
            "   bx r3                                           \n"
            ::"i" ( configMAX_SYSCALL_INTERRUPT_PRIORITY )
        );
    }
 80025d4:	20001d10 	.word	0x20001d10

080025d8 <SVC_Handler>:

#else /* ( configENABLE_MPU == 1 ) && ( configUSE_MPU_WRAPPERS_V1 == 0 ) */

    void SVC_Handler( void ) /* __attribute__ (( naked )) PRIVILEGED_FUNCTION */
    {
        __asm volatile
 80025d8:	f01e 0f04 	tst.w	lr, #4
 80025dc:	bf0c      	ite	eq
 80025de:	f3ef 8008 	mrseq	r0, MSP
 80025e2:	f3ef 8009 	mrsne	r0, PSP
 80025e6:	4901      	ldr	r1, [pc, #4]	; (80025ec <SVC_Handler+0x14>)
 80025e8:	4708      	bx	r1
            "   mrseq r0, msp                                   \n"
            "   mrsne r0, psp                                   \n"
            "   ldr r1, =vPortSVCHandler_C                      \n"
            "   bx r1                                           \n"
        );
    }
 80025ea:	0000      	.short	0x0000
 80025ec:	08002355 	.word	0x08002355

080025f0 <prvUnlockQueue>:
    }
}
/*-----------------------------------------------------------*/

static void prvUnlockQueue( Queue_t * const pxQueue )
{
 80025f0:	b570      	push	{r4, r5, r6, lr}
 80025f2:	4605      	mov	r5, r0

    /* The lock counts contains the number of extra data items placed or
     * removed from the queue while the queue was locked.  When a queue is
     * locked items can be added or removed, but the event lists cannot be
     * updated. */
    taskENTER_CRITICAL();
 80025f4:	f7ff fe7a 	bl	80022ec <vPortEnterCritical>
    {
        int8_t cTxLock = pxQueue->cTxLock;
 80025f8:	f895 3045 	ldrb.w	r3, [r5, #69]	; 0x45
 80025fc:	b25c      	sxtb	r4, r3

        /* See if data was added to the queue while it was locked. */
        while( cTxLock > queueLOCKED_UNMODIFIED )
 80025fe:	2c00      	cmp	r4, #0
 8002600:	dd14      	ble.n	800262c <prvUnlockQueue+0x3c>
            {
                /* Tasks that are removed from the event list will get added to
                 * the pending ready list as the scheduler is still suspended. */
                if( listLIST_IS_EMPTY( &( pxQueue->xTasksWaitingToReceive ) ) == pdFALSE )
                {
                    if( xTaskRemoveFromEventList( &( pxQueue->xTasksWaitingToReceive ) ) != pdFALSE )
 8002602:	f105 0624 	add.w	r6, r5, #36	; 0x24
 8002606:	e003      	b.n	8002610 <prvUnlockQueue+0x20>
                    break;
                }
            }
            #endif /* configUSE_QUEUE_SETS */

            --cTxLock;
 8002608:	1e63      	subs	r3, r4, #1
 800260a:	b2da      	uxtb	r2, r3
 800260c:	b25c      	sxtb	r4, r3
        while( cTxLock > queueLOCKED_UNMODIFIED )
 800260e:	b16a      	cbz	r2, 800262c <prvUnlockQueue+0x3c>
                if( listLIST_IS_EMPTY( &( pxQueue->xTasksWaitingToReceive ) ) == pdFALSE )
 8002610:	6a6b      	ldr	r3, [r5, #36]	; 0x24
 8002612:	b15b      	cbz	r3, 800262c <prvUnlockQueue+0x3c>
                    if( xTaskRemoveFromEventList( &( pxQueue->xTasksWaitingToReceive ) ) != pdFALSE )
 8002614:	4630      	mov	r0, r6
 8002616:	f008 fff7 	bl	800b608 <xTaskRemoveFromEventList>
 800261a:	2800      	cmp	r0, #0
 800261c:	d0f4      	beq.n	8002608 <prvUnlockQueue+0x18>
                        vTaskMissedYield();
 800261e:	f009 f8ad 	bl	800b77c <vTaskMissedYield>
            --cTxLock;
 8002622:	1e63      	subs	r3, r4, #1
 8002624:	b2da      	uxtb	r2, r3
 8002626:	b25c      	sxtb	r4, r3
        while( cTxLock > queueLOCKED_UNMODIFIED )
 8002628:	2a00      	cmp	r2, #0
 800262a:	d1f1      	bne.n	8002610 <prvUnlockQueue+0x20>
        }

        pxQueue->cTxLock = queueUNLOCKED;
 800262c:	23ff      	movs	r3, #255	; 0xff
 800262e:	f885 3045 	strb.w	r3, [r5, #69]	; 0x45
    }
    taskEXIT_CRITICAL();
 8002632:	f7ff fe69 	bl	8002308 <vPortExitCritical>

    /* Do the same for the Rx lock. */
    taskENTER_CRITICAL();
 8002636:	f7ff fe59 	bl	80022ec <vPortEnterCritical>
    {
        int8_t cRxLock = pxQueue->cRxLock;
 800263a:	f895 3044 	ldrb.w	r3, [r5, #68]	; 0x44
 800263e:	b25c      	sxtb	r4, r3

        while( cRxLock > queueLOCKED_UNMODIFIED )
 8002640:	2c00      	cmp	r4, #0
 8002642:	dd14      	ble.n	800266e <prvUnlockQueue+0x7e>
        {
            if( listLIST_IS_EMPTY( &( pxQueue->xTasksWaitingToSend ) ) == pdFALSE )
            {
                if( xTaskRemoveFromEventList( &( pxQueue->xTasksWaitingToSend ) ) != pdFALSE )
 8002644:	f105 0610 	add.w	r6, r5, #16
 8002648:	e003      	b.n	8002652 <prvUnlockQueue+0x62>
                else
                {
                    mtCOVERAGE_TEST_MARKER();
                }

                --cRxLock;
 800264a:	1e63      	subs	r3, r4, #1
 800264c:	b2da      	uxtb	r2, r3
 800264e:	b25c      	sxtb	r4, r3
        while( cRxLock > queueLOCKED_UNMODIFIED )
 8002650:	b16a      	cbz	r2, 800266e <prvUnlockQueue+0x7e>
            if( listLIST_IS_EMPTY( &( pxQueue->xTasksWaitingToSend ) ) == pdFALSE )
 8002652:	692b      	ldr	r3, [r5, #16]
 8002654:	b15b      	cbz	r3, 800266e <prvUnlockQueue+0x7e>
                if( xTaskRemoveFromEventList( &( pxQueue->xTasksWaitingToSend ) ) != pdFALSE )
 8002656:	4630      	mov	r0, r6
 8002658:	f008 ffd6 	bl	800b608 <xTaskRemoveFromEventList>
 800265c:	2800      	cmp	r0, #0
 800265e:	d0f4      	beq.n	800264a <prvUnlockQueue+0x5a>
                    vTaskMissedYield();
 8002660:	f009 f88c 	bl	800b77c <vTaskMissedYield>
                --cRxLock;
 8002664:	1e63      	subs	r3, r4, #1
 8002666:	b2da      	uxtb	r2, r3
 8002668:	b25c      	sxtb	r4, r3
        while( cRxLock > queueLOCKED_UNMODIFIED )
 800266a:	2a00      	cmp	r2, #0
 800266c:	d1f1      	bne.n	8002652 <prvUnlockQueue+0x62>
            {
                break;
            }
        }

        pxQueue->cRxLock = queueUNLOCKED;
 800266e:	23ff      	movs	r3, #255	; 0xff
 8002670:	f885 3044 	strb.w	r3, [r5, #68]	; 0x44
    }
    taskEXIT_CRITICAL();
}
 8002674:	e8bd 4070 	ldmia.w	sp!, {r4, r5, r6, lr}
    taskEXIT_CRITICAL();
 8002678:	f7ff be46 	b.w	8002308 <vPortExitCritical>

0800267c <xQueueGenericReset>:
{
 800267c:	b570      	push	{r4, r5, r6, lr}
    configASSERT( pxQueue );
 800267e:	b368      	cbz	r0, 80026dc <xQueueGenericReset+0x60>
        ( pxQueue->uxLength >= 1U ) &&
 8002680:	6bc3      	ldr	r3, [r0, #60]	; 0x3c
 8002682:	4604      	mov	r4, r0
    if( ( pxQueue != NULL ) &&
 8002684:	b1f3      	cbz	r3, 80026c4 <xQueueGenericReset+0x48>
        ( ( SIZE_MAX / pxQueue->uxLength ) >= pxQueue->uxItemSize ) )
 8002686:	6c05      	ldr	r5, [r0, #64]	; 0x40
 8002688:	fba5 3503 	umull	r3, r5, r5, r3
 800268c:	b9d5      	cbnz	r5, 80026c4 <xQueueGenericReset+0x48>
 800268e:	460e      	mov	r6, r1
        taskENTER_CRITICAL();
 8002690:	f7ff fe2c 	bl	80022ec <vPortEnterCritical>
            pxQueue->u.xQueue.pcTail = pxQueue->pcHead + ( pxQueue->uxLength * pxQueue->uxItemSize );
 8002694:	e9d4 300f 	ldrd	r3, r0, [r4, #60]	; 0x3c
            pxQueue->cRxLock = queueUNLOCKED;
 8002698:	21ff      	movs	r1, #255	; 0xff
            pxQueue->u.xQueue.pcTail = pxQueue->pcHead + ( pxQueue->uxLength * pxQueue->uxItemSize );
 800269a:	fb00 f303 	mul.w	r3, r0, r3
 800269e:	6822      	ldr	r2, [r4, #0]
            pxQueue->u.xQueue.pcReadFrom = pxQueue->pcHead + ( ( pxQueue->uxLength - 1U ) * pxQueue->uxItemSize );
 80026a0:	1a18      	subs	r0, r3, r0
            pxQueue->pcWriteTo = pxQueue->pcHead;
 80026a2:	6062      	str	r2, [r4, #4]
            pxQueue->u.xQueue.pcTail = pxQueue->pcHead + ( pxQueue->uxLength * pxQueue->uxItemSize );
 80026a4:	4413      	add	r3, r2
            pxQueue->u.xQueue.pcReadFrom = pxQueue->pcHead + ( ( pxQueue->uxLength - 1U ) * pxQueue->uxItemSize );
 80026a6:	4402      	add	r2, r0
            pxQueue->uxMessagesWaiting = ( UBaseType_t ) 0U;
 80026a8:	63a5      	str	r5, [r4, #56]	; 0x38
            pxQueue->u.xQueue.pcReadFrom = pxQueue->pcHead + ( ( pxQueue->uxLength - 1U ) * pxQueue->uxItemSize );
 80026aa:	e9c4 3202 	strd	r3, r2, [r4, #8]
            pxQueue->cRxLock = queueUNLOCKED;
 80026ae:	f884 1044 	strb.w	r1, [r4, #68]	; 0x44
            pxQueue->cTxLock = queueUNLOCKED;
 80026b2:	f884 1045 	strb.w	r1, [r4, #69]	; 0x45
            if( xNewQueue == pdFALSE )
 80026b6:	b946      	cbnz	r6, 80026ca <xQueueGenericReset+0x4e>
                if( listLIST_IS_EMPTY( &( pxQueue->xTasksWaitingToSend ) ) == pdFALSE )
 80026b8:	6923      	ldr	r3, [r4, #16]
 80026ba:	b993      	cbnz	r3, 80026e2 <xQueueGenericReset+0x66>
        taskEXIT_CRITICAL();
 80026bc:	f7ff fe24 	bl	8002308 <vPortExitCritical>
}
 80026c0:	2001      	movs	r0, #1
 80026c2:	bd70      	pop	{r4, r5, r6, pc}
    configASSERT( xReturn != pdFAIL );
 80026c4:	f7ff ff46 	bl	8002554 <ulSetInterruptMask>
 80026c8:	e7fe      	b.n	80026c8 <xQueueGenericReset+0x4c>
                vListInitialise( &( pxQueue->xTasksWaitingToSend ) );
 80026ca:	f104 0010 	add.w	r0, r4, #16
 80026ce:	f7ff fce9 	bl	80020a4 <vListInitialise>
                vListInitialise( &( pxQueue->xTasksWaitingToReceive ) );
 80026d2:	f104 0024 	add.w	r0, r4, #36	; 0x24
 80026d6:	f7ff fce5 	bl	80020a4 <vListInitialise>
 80026da:	e7ef      	b.n	80026bc <xQueueGenericReset+0x40>
    configASSERT( pxQueue );
 80026dc:	f7ff ff3a 	bl	8002554 <ulSetInterruptMask>
 80026e0:	e7fe      	b.n	80026e0 <xQueueGenericReset+0x64>
                    if( xTaskRemoveFromEventList( &( pxQueue->xTasksWaitingToSend ) ) != pdFALSE )
 80026e2:	f104 0010 	add.w	r0, r4, #16
 80026e6:	f008 ff8f 	bl	800b608 <xTaskRemoveFromEventList>
 80026ea:	2800      	cmp	r0, #0
 80026ec:	d0e6      	beq.n	80026bc <xQueueGenericReset+0x40>
                        queueYIELD_IF_USING_PREEMPTION();
 80026ee:	f7ff fdf1 	bl	80022d4 <vPortYield>
 80026f2:	e7e3      	b.n	80026bc <xQueueGenericReset+0x40>

080026f4 <xQueueGenericCreateStatic>:
    {
 80026f4:	b570      	push	{r4, r5, r6, lr}
 80026f6:	b082      	sub	sp, #8
 80026f8:	f89d 5018 	ldrb.w	r5, [sp, #24]
        configASSERT( pxStaticQueue );
 80026fc:	b363      	cbz	r3, 8002758 <xQueueGenericCreateStatic+0x64>
        if( ( uxQueueLength > ( UBaseType_t ) 0 ) &&
 80026fe:	b1c0      	cbz	r0, 8002732 <xQueueGenericCreateStatic+0x3e>
 8002700:	460c      	mov	r4, r1
 8002702:	461e      	mov	r6, r3
            ( pxStaticQueue != NULL ) &&
 8002704:	b1c2      	cbz	r2, 8002738 <xQueueGenericCreateStatic+0x44>
            ( !( ( pucQueueStorage != NULL ) && ( uxItemSize == 0U ) ) ) &&
 8002706:	b1a1      	cbz	r1, 8002732 <xQueueGenericCreateStatic+0x3e>
                volatile size_t xSize = sizeof( StaticQueue_t );
 8002708:	2150      	movs	r1, #80	; 0x50
 800270a:	9101      	str	r1, [sp, #4]
                configASSERT( xSize == sizeof( Queue_t ) ); /* LCOV_EXCL_BR_LINE */
 800270c:	9901      	ldr	r1, [sp, #4]
 800270e:	2950      	cmp	r1, #80	; 0x50
 8002710:	d11f      	bne.n	8002752 <xQueueGenericCreateStatic+0x5e>
                ( void ) xSize;                             /* Prevent unused variable warning when configASSERT() is not defined. */
 8002712:	9901      	ldr	r1, [sp, #4]
                pxNewQueue->ucStaticallyAllocated = pdTRUE;
 8002714:	2101      	movs	r1, #1
 8002716:	f883 1046 	strb.w	r1, [r3, #70]	; 0x46
    pxNewQueue->uxItemSize = uxItemSize;
 800271a:	e9c6 040f 	strd	r0, r4, [r6, #60]	; 0x3c
    ( void ) xQueueGenericReset( pxNewQueue, pdTRUE );
 800271e:	2101      	movs	r1, #1
 8002720:	4630      	mov	r0, r6
 8002722:	6032      	str	r2, [r6, #0]
 8002724:	f7ff ffaa 	bl	800267c <xQueueGenericReset>
    }
 8002728:	4630      	mov	r0, r6
        pxNewQueue->ucQueueType = ucQueueType;
 800272a:	f886 504c 	strb.w	r5, [r6, #76]	; 0x4c
    }
 800272e:	b002      	add	sp, #8
 8002730:	bd70      	pop	{r4, r5, r6, pc}
            configASSERT( pxNewQueue );
 8002732:	f7ff ff0f 	bl	8002554 <ulSetInterruptMask>
 8002736:	e7fe      	b.n	8002736 <xQueueGenericCreateStatic+0x42>
            ( !( ( pucQueueStorage == NULL ) && ( uxItemSize != 0U ) ) ) )
 8002738:	2900      	cmp	r1, #0
 800273a:	d1fa      	bne.n	8002732 <xQueueGenericCreateStatic+0x3e>
                volatile size_t xSize = sizeof( StaticQueue_t );
 800273c:	2250      	movs	r2, #80	; 0x50
 800273e:	9201      	str	r2, [sp, #4]
                configASSERT( xSize == sizeof( Queue_t ) ); /* LCOV_EXCL_BR_LINE */
 8002740:	9a01      	ldr	r2, [sp, #4]
 8002742:	2a50      	cmp	r2, #80	; 0x50
 8002744:	d105      	bne.n	8002752 <xQueueGenericCreateStatic+0x5e>
                pxNewQueue->ucStaticallyAllocated = pdTRUE;
 8002746:	2101      	movs	r1, #1
                ( void ) xSize;                             /* Prevent unused variable warning when configASSERT() is not defined. */
 8002748:	9a01      	ldr	r2, [sp, #4]
                pxNewQueue->ucStaticallyAllocated = pdTRUE;
 800274a:	f886 1046 	strb.w	r1, [r6, #70]	; 0x46
 800274e:	4632      	mov	r2, r6
 8002750:	e7e3      	b.n	800271a <xQueueGenericCreateStatic+0x26>
                configASSERT( xSize == sizeof( Queue_t ) ); /* LCOV_EXCL_BR_LINE */
 8002752:	f7ff feff 	bl	8002554 <ulSetInterruptMask>
 8002756:	e7fe      	b.n	8002756 <xQueueGenericCreateStatic+0x62>
        configASSERT( pxStaticQueue );
 8002758:	f7ff fefc 	bl	8002554 <ulSetInterruptMask>
 800275c:	e7fe      	b.n	800275c <xQueueGenericCreateStatic+0x68>
 800275e:	bf00      	nop

08002760 <xQueueReceive>:
{
 8002760:	e92d 41f0 	stmdb	sp!, {r4, r5, r6, r7, r8, lr}
 8002764:	b084      	sub	sp, #16
 8002766:	9201      	str	r2, [sp, #4]
    configASSERT( ( pxQueue ) );
 8002768:	2800      	cmp	r0, #0
 800276a:	f000 8088 	beq.w	800287e <xQueueReceive+0x11e>
    configASSERT( !( ( ( pvBuffer ) == NULL ) && ( ( pxQueue )->uxItemSize != ( UBaseType_t ) 0U ) ) );
 800276e:	4604      	mov	r4, r0
 8002770:	460e      	mov	r6, r1
 8002772:	2900      	cmp	r1, #0
 8002774:	d077      	beq.n	8002866 <xQueueReceive+0x106>
        configASSERT( !( ( xTaskGetSchedulerState() == taskSCHEDULER_SUSPENDED ) && ( xTicksToWait != 0 ) ) );
 8002776:	f009 f807 	bl	800b788 <xTaskGetSchedulerState>
 800277a:	2800      	cmp	r0, #0
 800277c:	d079      	beq.n	8002872 <xQueueReceive+0x112>
        taskENTER_CRITICAL();
 800277e:	f7ff fdb5 	bl	80022ec <vPortEnterCritical>
            const UBaseType_t uxMessagesWaiting = pxQueue->uxMessagesWaiting;
 8002782:	6ba5      	ldr	r5, [r4, #56]	; 0x38
            if( uxMessagesWaiting > ( UBaseType_t ) 0 )
 8002784:	2d00      	cmp	r5, #0
 8002786:	d158      	bne.n	800283a <xQueueReceive+0xda>
                if( xTicksToWait == ( TickType_t ) 0 )
 8002788:	9b01      	ldr	r3, [sp, #4]
 800278a:	2b00      	cmp	r3, #0
 800278c:	d043      	beq.n	8002816 <xQueueReceive+0xb6>
                    vTaskInternalSetTimeOutState( &xTimeOut );
 800278e:	a802      	add	r0, sp, #8
 8002790:	f008 ffae 	bl	800b6f0 <vTaskInternalSetTimeOutState>
        prvLockQueue( pxQueue );
 8002794:	462f      	mov	r7, r5
                vTaskPlaceOnEventList( &( pxQueue->xTasksWaitingToReceive ), xTicksToWait );
 8002796:	f104 0824 	add.w	r8, r4, #36	; 0x24
        taskEXIT_CRITICAL();
 800279a:	f7ff fdb5 	bl	8002308 <vPortExitCritical>
        vTaskSuspendAll();
 800279e:	f008 febb 	bl	800b518 <vTaskSuspendAll>
        prvLockQueue( pxQueue );
 80027a2:	f7ff fda3 	bl	80022ec <vPortEnterCritical>
 80027a6:	f894 3044 	ldrb.w	r3, [r4, #68]	; 0x44
 80027aa:	2bff      	cmp	r3, #255	; 0xff
 80027ac:	bf08      	it	eq
 80027ae:	f884 7044 	strbeq.w	r7, [r4, #68]	; 0x44
 80027b2:	f894 3045 	ldrb.w	r3, [r4, #69]	; 0x45
 80027b6:	2bff      	cmp	r3, #255	; 0xff
 80027b8:	bf08      	it	eq
 80027ba:	f884 7045 	strbeq.w	r7, [r4, #69]	; 0x45
 80027be:	f7ff fda3 	bl	8002308 <vPortExitCritical>
        if( xTaskCheckForTimeOut( &xTimeOut, &xTicksToWait ) == pdFALSE )
 80027c2:	a901      	add	r1, sp, #4
 80027c4:	a802      	add	r0, sp, #8
 80027c6:	f008 ff9f 	bl	800b708 <xTaskCheckForTimeOut>
 80027ca:	b990      	cbnz	r0, 80027f2 <xQueueReceive+0x92>

static BaseType_t prvIsQueueEmpty( const Queue_t * pxQueue )
{
    BaseType_t xReturn;

    taskENTER_CRITICAL();
 80027cc:	f7ff fd8e 	bl	80022ec <vPortEnterCritical>
    {
        if( pxQueue->uxMessagesWaiting == ( UBaseType_t ) 0 )
 80027d0:	6ba3      	ldr	r3, [r4, #56]	; 0x38
 80027d2:	bb33      	cbnz	r3, 8002822 <xQueueReceive+0xc2>
        else
        {
            xReturn = pdFALSE;
        }
    }
    taskEXIT_CRITICAL();
 80027d4:	f7ff fd98 	bl	8002308 <vPortExitCritical>
                vTaskPlaceOnEventList( &( pxQueue->xTasksWaitingToReceive ), xTicksToWait );
 80027d8:	4640      	mov	r0, r8
 80027da:	9901      	ldr	r1, [sp, #4]
 80027dc:	f008 fed8 	bl	800b590 <vTaskPlaceOnEventList>
                prvUnlockQueue( pxQueue );
 80027e0:	4620      	mov	r0, r4
 80027e2:	f7ff ff05 	bl	80025f0 <prvUnlockQueue>
                if( xTaskResumeAll() == pdFALSE )
 80027e6:	f008 fe9f 	bl	800b528 <xTaskResumeAll>
 80027ea:	b968      	cbnz	r0, 8002808 <xQueueReceive+0xa8>
                    taskYIELD_WITHIN_API();
 80027ec:	f7ff fd72 	bl	80022d4 <vPortYield>
        taskENTER_CRITICAL();
 80027f0:	e00a      	b.n	8002808 <xQueueReceive+0xa8>
            prvUnlockQueue( pxQueue );
 80027f2:	4620      	mov	r0, r4
 80027f4:	f7ff fefc 	bl	80025f0 <prvUnlockQueue>
            ( void ) xTaskResumeAll();
 80027f8:	f008 fe96 	bl	800b528 <xTaskResumeAll>
    taskENTER_CRITICAL();
 80027fc:	f7ff fd76 	bl	80022ec <vPortEnterCritical>
        if( pxQueue->uxMessagesWaiting == ( UBaseType_t ) 0 )
 8002800:	6ba3      	ldr	r3, [r4, #56]	; 0x38
 8002802:	b143      	cbz	r3, 8002816 <xQueueReceive+0xb6>
    taskEXIT_CRITICAL();
 8002804:	f7ff fd80 	bl	8002308 <vPortExitCritical>
        taskENTER_CRITICAL();
 8002808:	f7ff fd70 	bl	80022ec <vPortEnterCritical>
            const UBaseType_t uxMessagesWaiting = pxQueue->uxMessagesWaiting;
 800280c:	6ba5      	ldr	r5, [r4, #56]	; 0x38
            if( uxMessagesWaiting > ( UBaseType_t ) 0 )
 800280e:	b9a5      	cbnz	r5, 800283a <xQueueReceive+0xda>
                if( xTicksToWait == ( TickType_t ) 0 )
 8002810:	9b01      	ldr	r3, [sp, #4]
 8002812:	2b00      	cmp	r3, #0
 8002814:	d1c1      	bne.n	800279a <xQueueReceive+0x3a>
                    taskEXIT_CRITICAL();
 8002816:	f7ff fd77 	bl	8002308 <vPortExitCritical>
                    return errQUEUE_EMPTY;
 800281a:	2000      	movs	r0, #0
}
 800281c:	b004      	add	sp, #16
 800281e:	e8bd 81f0 	ldmia.w	sp!, {r4, r5, r6, r7, r8, pc}
    taskEXIT_CRITICAL();
 8002822:	f7ff fd71 	bl	8002308 <vPortExitCritical>
                prvUnlockQueue( pxQueue );
 8002826:	4620      	mov	r0, r4
 8002828:	f7ff fee2 	bl	80025f0 <prvUnlockQueue>
                ( void ) xTaskResumeAll();
 800282c:	f008 fe7c 	bl	800b528 <xTaskResumeAll>
        taskENTER_CRITICAL();
 8002830:	f7ff fd5c 	bl	80022ec <vPortEnterCritical>
            const UBaseType_t uxMessagesWaiting = pxQueue->uxMessagesWaiting;
 8002834:	6ba5      	ldr	r5, [r4, #56]	; 0x38
            if( uxMessagesWaiting > ( UBaseType_t ) 0 )
 8002836:	2d00      	cmp	r5, #0
 8002838:	d0ea      	beq.n	8002810 <xQueueReceive+0xb0>
    if( pxQueue->uxItemSize != ( UBaseType_t ) 0 )
 800283a:	6c22      	ldr	r2, [r4, #64]	; 0x40
 800283c:	b15a      	cbz	r2, 8002856 <xQueueReceive+0xf6>
        pxQueue->u.xQueue.pcReadFrom += pxQueue->uxItemSize;
 800283e:	68e1      	ldr	r1, [r4, #12]
        if( pxQueue->u.xQueue.pcReadFrom >= pxQueue->u.xQueue.pcTail )
 8002840:	68a3      	ldr	r3, [r4, #8]
        pxQueue->u.xQueue.pcReadFrom += pxQueue->uxItemSize;
 8002842:	4411      	add	r1, r2
        if( pxQueue->u.xQueue.pcReadFrom >= pxQueue->u.xQueue.pcTail )
 8002844:	4299      	cmp	r1, r3
        pxQueue->u.xQueue.pcReadFrom += pxQueue->uxItemSize;
 8002846:	60e1      	str	r1, [r4, #12]
            pxQueue->u.xQueue.pcReadFrom = pxQueue->pcHead;
 8002848:	bf28      	it	cs
 800284a:	6821      	ldrcs	r1, [r4, #0]
        ( void ) memcpy( ( void * ) pvBuffer, ( void * ) pxQueue->u.xQueue.pcReadFrom, ( size_t ) pxQueue->uxItemSize );
 800284c:	4630      	mov	r0, r6
            pxQueue->u.xQueue.pcReadFrom = pxQueue->pcHead;
 800284e:	bf28      	it	cs
 8002850:	60e1      	strcs	r1, [r4, #12]
        ( void ) memcpy( ( void * ) pvBuffer, ( void * ) pxQueue->u.xQueue.pcReadFrom, ( size_t ) pxQueue->uxItemSize );
 8002852:	f7fe fbd1 	bl	8000ff8 <memcpy>
                if( listLIST_IS_EMPTY( &( pxQueue->xTasksWaitingToSend ) ) == pdFALSE )
 8002856:	6923      	ldr	r3, [r4, #16]
                pxQueue->uxMessagesWaiting = ( UBaseType_t ) ( uxMessagesWaiting - ( UBaseType_t ) 1 );
 8002858:	3d01      	subs	r5, #1
 800285a:	63a5      	str	r5, [r4, #56]	; 0x38
                if( listLIST_IS_EMPTY( &( pxQueue->xTasksWaitingToSend ) ) == pdFALSE )
 800285c:	b993      	cbnz	r3, 8002884 <xQueueReceive+0x124>
                taskEXIT_CRITICAL();
 800285e:	f7ff fd53 	bl	8002308 <vPortExitCritical>
                return pdPASS;
 8002862:	2001      	movs	r0, #1
 8002864:	e7da      	b.n	800281c <xQueueReceive+0xbc>
    configASSERT( !( ( ( pvBuffer ) == NULL ) && ( ( pxQueue )->uxItemSize != ( UBaseType_t ) 0U ) ) );
 8002866:	6c03      	ldr	r3, [r0, #64]	; 0x40
 8002868:	2b00      	cmp	r3, #0
 800286a:	d084      	beq.n	8002776 <xQueueReceive+0x16>
 800286c:	f7ff fe72 	bl	8002554 <ulSetInterruptMask>
 8002870:	e7fe      	b.n	8002870 <xQueueReceive+0x110>
        configASSERT( !( ( xTaskGetSchedulerState() == taskSCHEDULER_SUSPENDED ) && ( xTicksToWait != 0 ) ) );
 8002872:	9b01      	ldr	r3, [sp, #4]
 8002874:	2b00      	cmp	r3, #0
 8002876:	d082      	beq.n	800277e <xQueueReceive+0x1e>
 8002878:	f7ff fe6c 	bl	8002554 <ulSetInterruptMask>
 800287c:	e7fe      	b.n	800287c <xQueueReceive+0x11c>
    configASSERT( ( pxQueue ) );
 800287e:	f7ff fe69 	bl	8002554 <ulSetInterruptMask>
 8002882:	e7fe      	b.n	8002882 <xQueueReceive+0x122>
                    if( xTaskRemoveFromEventList( &( pxQueue->xTasksWaitingToSend ) ) != pdFALSE )
 8002884:	f104 0010 	add.w	r0, r4, #16
 8002888:	f008 febe 	bl	800b608 <xTaskRemoveFromEventList>
 800288c:	2800      	cmp	r0, #0
 800288e:	d0e6      	beq.n	800285e <xQueueReceive+0xfe>
                        queueYIELD_IF_USING_PREEMPTION();
 8002890:	f7ff fd20 	bl	80022d4 <vPortYield>
 8002894:	e7e3      	b.n	800285e <xQueueReceive+0xfe>
 8002896:	bf00      	nop

08002898 <vQueueWaitForMessageRestricted>:
#if ( configUSE_TIMERS == 1 )

    void vQueueWaitForMessageRestricted( QueueHandle_t xQueue,
                                         TickType_t xTicksToWait,
                                         const BaseType_t xWaitIndefinitely )
    {
 8002898:	b570      	push	{r4, r5, r6, lr}
 800289a:	4604      	mov	r4, r0
 800289c:	460e      	mov	r6, r1
 800289e:	4615      	mov	r5, r2
         *  will not actually cause the task to block, just place it on a blocked
         *  list.  It will not block until the scheduler is unlocked - at which
         *  time a yield will be performed.  If an item is added to the queue while
         *  the queue is locked, and the calling task blocks on the queue, then the
         *  calling task will be immediately unblocked when the queue is unlocked. */
        prvLockQueue( pxQueue );
 80028a0:	f7ff fd24 	bl	80022ec <vPortEnterCritical>
 80028a4:	f894 3044 	ldrb.w	r3, [r4, #68]	; 0x44
 80028a8:	2bff      	cmp	r3, #255	; 0xff
 80028aa:	bf04      	itt	eq
 80028ac:	2300      	moveq	r3, #0
 80028ae:	f884 3044 	strbeq.w	r3, [r4, #68]	; 0x44
 80028b2:	f894 3045 	ldrb.w	r3, [r4, #69]	; 0x45
 80028b6:	2bff      	cmp	r3, #255	; 0xff
 80028b8:	bf04      	itt	eq
 80028ba:	2300      	moveq	r3, #0
 80028bc:	f884 3045 	strbeq.w	r3, [r4, #69]	; 0x45
 80028c0:	f7ff fd22 	bl	8002308 <vPortExitCritical>

        if( pxQueue->uxMessagesWaiting == ( UBaseType_t ) 0U )
 80028c4:	6ba3      	ldr	r3, [r4, #56]	; 0x38
 80028c6:	b123      	cbz	r3, 80028d2 <vQueueWaitForMessageRestricted+0x3a>
        else
        {
            mtCOVERAGE_TEST_MARKER();
        }

        prvUnlockQueue( pxQueue );
 80028c8:	4620      	mov	r0, r4

        traceRETURN_vQueueWaitForMessageRestricted();
    }
 80028ca:	e8bd 4070 	ldmia.w	sp!, {r4, r5, r6, lr}
        prvUnlockQueue( pxQueue );
 80028ce:	f7ff be8f 	b.w	80025f0 <prvUnlockQueue>
            vTaskPlaceOnEventListRestricted( &( pxQueue->xTasksWaitingToReceive ), xTicksToWait, xWaitIndefinitely );
 80028d2:	f104 0024 	add.w	r0, r4, #36	; 0x24
 80028d6:	462a      	mov	r2, r5
 80028d8:	4631      	mov	r1, r6
 80028da:	f008 fe6d 	bl	800b5b8 <vTaskPlaceOnEventListRestricted>
        prvUnlockQueue( pxQueue );
 80028de:	4620      	mov	r0, r4
    }
 80028e0:	e8bd 4070 	ldmia.w	sp!, {r4, r5, r6, lr}
        prvUnlockQueue( pxQueue );
 80028e4:	f7ff be84 	b.w	80025f0 <prvUnlockQueue>

080028e8 <out_buffer>:


// internal buffer output
static inline void out_buffer(char character, void* buffer, size_t idx, size_t maxlen)
{
  if (idx < maxlen) {
 80028e8:	429a      	cmp	r2, r3
    ((char*)buffer)[idx] = character;
 80028ea:	bf38      	it	cc
 80028ec:	5488      	strbcc	r0, [r1, r2]
  }
}
 80028ee:	4770      	bx	lr

080028f0 <out_discard>:

// internal null output
static inline void out_discard(char character, void* buffer, size_t idx, size_t maxlen)
{
  (void)character; (void)buffer; (void)idx; (void)maxlen;
}
 80028f0:	4770      	bx	lr
 80028f2:	bf00      	nop

080028f4 <out_rev_>:
}


// output the specified string in reverse, taking care of any zero-padding
static size_t out_rev_(out_fct_type out, char* buffer, size_t idx, size_t maxlen, const char* buf, size_t len, unsigned int width, unsigned int flags)
{
 80028f4:	e92d 4ff8 	stmdb	sp!, {r3, r4, r5, r6, r7, r8, r9, sl, fp, lr}
 80028f8:	469a      	mov	sl, r3
  const size_t start_idx = idx;

  // pad spaces up to given width
  if (!(flags & FLAGS_LEFT) && !(flags & FLAGS_ZEROPAD)) {
 80028fa:	9b0d      	ldr	r3, [sp, #52]	; 0x34
{
 80028fc:	4617      	mov	r7, r2
  if (!(flags & FLAGS_LEFT) && !(flags & FLAGS_ZEROPAD)) {
 80028fe:	079a      	lsls	r2, r3, #30
{
 8002900:	4606      	mov	r6, r0
 8002902:	468b      	mov	fp, r1
 8002904:	f8dd 8028 	ldr.w	r8, [sp, #40]	; 0x28
  if (!(flags & FLAGS_LEFT) && !(flags & FLAGS_ZEROPAD)) {
 8002908:	d111      	bne.n	800292e <out_rev_+0x3a>
    for (size_t i = len; i < width; i++) {
 800290a:	e9dd 320b 	ldrd	r3, r2, [sp, #44]	; 0x2c
 800290e:	4293      	cmp	r3, r2
 8002910:	d20d      	bcs.n	800292e <out_rev_+0x3a>
 8002912:	4613      	mov	r3, r2
 8002914:	463c      	mov	r4, r7
 8002916:	9a0b      	ldr	r2, [sp, #44]	; 0x2c
 8002918:	1a9d      	subs	r5, r3, r2
 800291a:	443d      	add	r5, r7
      out(' ', buffer, idx++, maxlen);
 800291c:	4622      	mov	r2, r4
 800291e:	4653      	mov	r3, sl
 8002920:	4659      	mov	r1, fp
 8002922:	2020      	movs	r0, #32
 8002924:	3401      	adds	r4, #1
 8002926:	47b0      	blx	r6
    for (size_t i = len; i < width; i++) {
 8002928:	42ac      	cmp	r4, r5
 800292a:	d1f7      	bne.n	800291c <out_rev_+0x28>
 800292c:	e000      	b.n	8002930 <out_rev_+0x3c>
 800292e:	463d      	mov	r5, r7
    }
  }

  // reverse string
  while (len) {
 8002930:	9b0b      	ldr	r3, [sp, #44]	; 0x2c
 8002932:	b173      	cbz	r3, 8002952 <out_rev_+0x5e>
 8002934:	eb08 0403 	add.w	r4, r8, r3
 8002938:	eb04 0905 	add.w	r9, r4, r5
 800293c:	eba9 0204 	sub.w	r2, r9, r4
    out(buf[--len], buffer, idx++, maxlen);
 8002940:	f814 0d01 	ldrb.w	r0, [r4, #-1]!
 8002944:	4653      	mov	r3, sl
 8002946:	4659      	mov	r1, fp
 8002948:	47b0      	blx	r6
  while (len) {
 800294a:	4544      	cmp	r4, r8
 800294c:	d1f6      	bne.n	800293c <out_rev_+0x48>
    out(buf[--len], buffer, idx++, maxlen);
 800294e:	9b0b      	ldr	r3, [sp, #44]	; 0x2c
 8002950:	441d      	add	r5, r3
  }

  // append pad spaces up to given width
  if (flags & FLAGS_LEFT) {
 8002952:	9b0d      	ldr	r3, [sp, #52]	; 0x34
 8002954:	079b      	lsls	r3, r3, #30
 8002956:	d50e      	bpl.n	8002976 <out_rev_+0x82>
    while (idx - start_idx < width) {
 8002958:	9b0c      	ldr	r3, [sp, #48]	; 0x30
 800295a:	1bef      	subs	r7, r5, r7
 800295c:	42bb      	cmp	r3, r7
 800295e:	d90a      	bls.n	8002976 <out_rev_+0x82>
 8002960:	461c      	mov	r4, r3
      out(' ', buffer, idx++, maxlen);
 8002962:	462a      	mov	r2, r5
 8002964:	4653      	mov	r3, sl
 8002966:	4659      	mov	r1, fp
 8002968:	2020      	movs	r0, #32
    while (idx - start_idx < width) {
 800296a:	3701      	adds	r7, #1
      out(' ', buffer, idx++, maxlen);
 800296c:	47b0      	blx	r6
    while (idx - start_idx < width) {
 800296e:	42a7      	cmp	r7, r4
      out(' ', buffer, idx++, maxlen);
 8002970:	f105 0501 	add.w	r5, r5, #1
    while (idx - start_idx < width) {
 8002974:	d3f5      	bcc.n	8002962 <out_rev_+0x6e>
    }
  }

  return idx;
}
 8002976:	4628      	mov	r0, r5
 8002978:	e8bd 8ff8 	ldmia.w	sp!, {r3, r4, r5, r6, r7, r8, r9, sl, fp, pc}

0800297c <print_integer>:
  return out_rev_(out, buffer, idx, maxlen, buf, len, width, flags);
}

// An internal itoa-like function
static size_t print_integer(out_fct_type out, char* buffer, size_t idx, size_t maxlen, printf_unsigned_value_t value, bool negative, numeric_base_t base, unsigned int precision, unsigned int width, unsigned int flags)
{
 800297c:	e92d 4ff0 	stmdb	sp!, {r4, r5, r6, r7, r8, r9, sl, fp, lr}
 8002980:	ed2d 8b04 	vpush	{d8-d9}
 8002984:	b08f      	sub	sp, #60	; 0x3c
 8002986:	f89d 4078 	ldrb.w	r4, [sp, #120]	; 0x78
 800298a:	ee09 3a90 	vmov	s19, r3
 800298e:	e9dd 561c 	ldrd	r5, r6, [sp, #112]	; 0x70
 8002992:	e9dd 9a20 	ldrd	r9, sl, [sp, #128]	; 0x80
  char buf[PRINTF_INTEGER_BUFFER_SIZE];
  size_t len = 0U;

  if (!value) {
 8002996:	ea55 0306 	orrs.w	r3, r5, r6
{
 800299a:	ee08 0a10 	vmov	s16, r0
 800299e:	ee08 1a90 	vmov	s17, r1
 80029a2:	ee09 2a10 	vmov	s18, r2
 80029a6:	f89d 707c 	ldrb.w	r7, [sp, #124]	; 0x7c
 80029aa:	f8dd b088 	ldr.w	fp, [sp, #136]	; 0x88
 80029ae:	9405      	str	r4, [sp, #20]
  if (!value) {
 80029b0:	d15d      	bne.n	8002a6e <print_integer+0xf2>
    if ( !(flags & FLAGS_PRECISION) ) {
 80029b2:	f41b 6f80 	tst.w	fp, #1024	; 0x400
 80029b6:	f040 80b2 	bne.w	8002b1e <print_integer+0x1a2>
      buf[len++] = '0';
 80029ba:	2330      	movs	r3, #48	; 0x30
      flags &= ~FLAGS_HASH;
 80029bc:	f02b 0b10 	bic.w	fp, fp, #16
      buf[len++] = '0';
 80029c0:	f88d 3018 	strb.w	r3, [sp, #24]
    if (!(flags & FLAGS_LEFT)) {
 80029c4:	f01b 0f02 	tst.w	fp, #2
 80029c8:	ab06      	add	r3, sp, #24
      buf[len++] = '0';
 80029ca:	f04f 0401 	mov.w	r4, #1
 80029ce:	9304      	str	r3, [sp, #16]
    if (!(flags & FLAGS_LEFT)) {
 80029d0:	d07a      	beq.n	8002ac8 <print_integer+0x14c>
 80029d2:	4623      	mov	r3, r4
    while ((len < precision) && (len < PRINTF_INTEGER_BUFFER_SIZE)) {
 80029d4:	4599      	cmp	r9, r3
 80029d6:	d90d      	bls.n	80029f4 <print_integer+0x78>
 80029d8:	2b20      	cmp	r3, #32
 80029da:	d00b      	beq.n	80029f4 <print_integer+0x78>
 80029dc:	9804      	ldr	r0, [sp, #16]
 80029de:	1e5a      	subs	r2, r3, #1
      buf[len++] = '0';
 80029e0:	2130      	movs	r1, #48	; 0x30
 80029e2:	4402      	add	r2, r0
 80029e4:	e001      	b.n	80029ea <print_integer+0x6e>
    while ((len < precision) && (len < PRINTF_INTEGER_BUFFER_SIZE)) {
 80029e6:	2b20      	cmp	r3, #32
 80029e8:	d004      	beq.n	80029f4 <print_integer+0x78>
      buf[len++] = '0';
 80029ea:	3301      	adds	r3, #1
    while ((len < precision) && (len < PRINTF_INTEGER_BUFFER_SIZE)) {
 80029ec:	4599      	cmp	r9, r3
      buf[len++] = '0';
 80029ee:	f802 1f01 	strb.w	r1, [r2, #1]!
    while ((len < precision) && (len < PRINTF_INTEGER_BUFFER_SIZE)) {
 80029f2:	d1f8      	bne.n	80029e6 <print_integer+0x6a>
    if (base == BASE_OCTAL && (len > unpadded_len)) {
 80029f4:	2f08      	cmp	r7, #8
 80029f6:	d103      	bne.n	8002a00 <print_integer+0x84>
 80029f8:	429c      	cmp	r4, r3
      flags &= ~FLAGS_HASH;
 80029fa:	bf38      	it	cc
 80029fc:	f02b 0b10 	biccc.w	fp, fp, #16
  if (flags & (FLAGS_HASH | FLAGS_POINTER)) {
 8002a00:	f241 0210 	movw	r2, #4112	; 0x1010
 8002a04:	ea1b 0f02 	tst.w	fp, r2
 8002a08:	d011      	beq.n	8002a2e <print_integer+0xb2>
    if (!(flags & FLAGS_PRECISION) && len && ((len == precision) || (len == width))) {
 8002a0a:	f41b 6f80 	tst.w	fp, #1024	; 0x400
 8002a0e:	d07c      	beq.n	8002b0a <print_integer+0x18e>
    if ((base == BASE_HEX) && !(flags & FLAGS_UPPERCASE) && (len < PRINTF_INTEGER_BUFFER_SIZE)) {
 8002a10:	2f10      	cmp	r7, #16
 8002a12:	f000 80bb 	beq.w	8002b8c <print_integer+0x210>
    else if ((base == BASE_BINARY) && (len < PRINTF_INTEGER_BUFFER_SIZE)) {
 8002a16:	2f02      	cmp	r7, #2
 8002a18:	f000 80a1 	beq.w	8002b5e <print_integer+0x1e2>
    if (len < PRINTF_INTEGER_BUFFER_SIZE) {
 8002a1c:	2b20      	cmp	r3, #32
 8002a1e:	d012      	beq.n	8002a46 <print_integer+0xca>
      buf[len++] = '0';
 8002a20:	2130      	movs	r1, #48	; 0x30
 8002a22:	185a      	adds	r2, r3, r1
 8002a24:	3208      	adds	r2, #8
 8002a26:	446a      	add	r2, sp
 8002a28:	f802 1c20 	strb.w	r1, [r2, #-32]
 8002a2c:	3301      	adds	r3, #1
  if (len < PRINTF_INTEGER_BUFFER_SIZE) {
 8002a2e:	2b20      	cmp	r3, #32
 8002a30:	d009      	beq.n	8002a46 <print_integer+0xca>
    if (negative) {
 8002a32:	9a05      	ldr	r2, [sp, #20]
 8002a34:	2a00      	cmp	r2, #0
 8002a36:	d078      	beq.n	8002b2a <print_integer+0x1ae>
      buf[len++] = '-';
 8002a38:	212d      	movs	r1, #45	; 0x2d
      buf[len++] = ' ';
 8002a3a:	f103 0238 	add.w	r2, r3, #56	; 0x38
 8002a3e:	446a      	add	r2, sp
 8002a40:	f802 1c20 	strb.w	r1, [r2, #-32]
 8002a44:	3301      	adds	r3, #1
  return out_rev_(out, buffer, idx, maxlen, buf, len, width, flags);
 8002a46:	9c04      	ldr	r4, [sp, #16]
 8002a48:	9301      	str	r3, [sp, #4]
 8002a4a:	ee19 2a10 	vmov	r2, s18
 8002a4e:	ee19 3a90 	vmov	r3, s19
 8002a52:	ee18 1a90 	vmov	r1, s17
 8002a56:	ee18 0a10 	vmov	r0, s16
 8002a5a:	e9cd ab02 	strd	sl, fp, [sp, #8]
 8002a5e:	9400      	str	r4, [sp, #0]
 8002a60:	f7ff ff48 	bl	80028f4 <out_rev_>
      value /= base;
    } while (value && (len < PRINTF_INTEGER_BUFFER_SIZE));
  }

  return print_integer_finalization(out, buffer, idx, maxlen, buf, len, negative, base, precision, width, flags);
}
 8002a64:	b00f      	add	sp, #60	; 0x3c
 8002a66:	ecbd 8b04 	vpop	{d8-d9}
 8002a6a:	e8bd 8ff0 	ldmia.w	sp!, {r4, r5, r6, r7, r8, r9, sl, fp, pc}
 8002a6e:	f01b 0f20 	tst.w	fp, #32
 8002a72:	bf14      	ite	ne
 8002a74:	2341      	movne	r3, #65	; 0x41
 8002a76:	2361      	moveq	r3, #97	; 0x61
 8002a78:	aa06      	add	r2, sp, #24
      buf[len++] = (char)(digit < 10 ? '0' + digit : (flags & FLAGS_UPPERCASE ? 'A' : 'a') + digit - 10);
 8002a7a:	3b0a      	subs	r3, #10
 8002a7c:	f8cd 9080 	str.w	r9, [sp, #128]	; 0x80
 8002a80:	4690      	mov	r8, r2
  size_t len = 0U;
 8002a82:	2400      	movs	r4, #0
 8002a84:	4699      	mov	r9, r3
 8002a86:	9204      	str	r2, [sp, #16]
 8002a88:	e003      	b.n	8002a92 <print_integer+0x116>
    } while (value && (len < PRINTF_INTEGER_BUFFER_SIZE));
 8002a8a:	2c20      	cmp	r4, #32
 8002a8c:	d017      	beq.n	8002abe <print_integer+0x142>
      value /= base;
 8002a8e:	4605      	mov	r5, r0
 8002a90:	460e      	mov	r6, r1
      const char digit = (char)(value % base);
 8002a92:	4628      	mov	r0, r5
 8002a94:	4631      	mov	r1, r6
 8002a96:	463a      	mov	r2, r7
 8002a98:	2300      	movs	r3, #0
 8002a9a:	f7fe f8c7 	bl	8000c2c <__aeabi_uldivmod>
 8002a9e:	b2d2      	uxtb	r2, r2
      buf[len++] = (char)(digit < 10 ? '0' + digit : (flags & FLAGS_UPPERCASE ? 'A' : 'a') + digit - 10);
 8002aa0:	2a09      	cmp	r2, #9
 8002aa2:	f102 0330 	add.w	r3, r2, #48	; 0x30
 8002aa6:	bf8a      	itet	hi
 8002aa8:	444a      	addhi	r2, r9
 8002aaa:	b2da      	uxtbls	r2, r3
 8002aac:	b2d2      	uxtbhi	r2, r2
    } while (value && (len < PRINTF_INTEGER_BUFFER_SIZE));
 8002aae:	42bd      	cmp	r5, r7
 8002ab0:	f176 0300 	sbcs.w	r3, r6, #0
      buf[len++] = (char)(digit < 10 ? '0' + digit : (flags & FLAGS_UPPERCASE ? 'A' : 'a') + digit - 10);
 8002ab4:	f808 2b01 	strb.w	r2, [r8], #1
 8002ab8:	f104 0401 	add.w	r4, r4, #1
    } while (value && (len < PRINTF_INTEGER_BUFFER_SIZE));
 8002abc:	d2e5      	bcs.n	8002a8a <print_integer+0x10e>
 8002abe:	f8dd 9080 	ldr.w	r9, [sp, #128]	; 0x80
    if (!(flags & FLAGS_LEFT)) {
 8002ac2:	f01b 0f02 	tst.w	fp, #2
 8002ac6:	d184      	bne.n	80029d2 <print_integer+0x56>
      if (width && (flags & FLAGS_ZEROPAD) && (negative || (flags & (FLAGS_PLUS | FLAGS_SPACE)))) {
 8002ac8:	f1ba 0f00 	cmp.w	sl, #0
 8002acc:	d081      	beq.n	80029d2 <print_integer+0x56>
 8002ace:	f01b 0f01 	tst.w	fp, #1
 8002ad2:	f43f af7e 	beq.w	80029d2 <print_integer+0x56>
 8002ad6:	9b05      	ldr	r3, [sp, #20]
 8002ad8:	2b00      	cmp	r3, #0
 8002ada:	d152      	bne.n	8002b82 <print_integer+0x206>
 8002adc:	f01b 0f0c 	tst.w	fp, #12
 8002ae0:	d14f      	bne.n	8002b82 <print_integer+0x206>
      while ((flags & FLAGS_ZEROPAD) && (len < width) && (len < PRINTF_INTEGER_BUFFER_SIZE)) {
 8002ae2:	4554      	cmp	r4, sl
 8002ae4:	f4bf af75 	bcs.w	80029d2 <print_integer+0x56>
 8002ae8:	2c1f      	cmp	r4, #31
 8002aea:	d84d      	bhi.n	8002b88 <print_integer+0x20c>
 8002aec:	9804      	ldr	r0, [sp, #16]
 8002aee:	1e62      	subs	r2, r4, #1
 8002af0:	4623      	mov	r3, r4
        buf[len++] = '0';
 8002af2:	2130      	movs	r1, #48	; 0x30
 8002af4:	4402      	add	r2, r0
 8002af6:	e001      	b.n	8002afc <print_integer+0x180>
      while ((flags & FLAGS_ZEROPAD) && (len < width) && (len < PRINTF_INTEGER_BUFFER_SIZE)) {
 8002af8:	2b20      	cmp	r3, #32
 8002afa:	d045      	beq.n	8002b88 <print_integer+0x20c>
        buf[len++] = '0';
 8002afc:	3301      	adds	r3, #1
      while ((flags & FLAGS_ZEROPAD) && (len < width) && (len < PRINTF_INTEGER_BUFFER_SIZE)) {
 8002afe:	4553      	cmp	r3, sl
        buf[len++] = '0';
 8002b00:	f802 1f01 	strb.w	r1, [r2, #1]!
      while ((flags & FLAGS_ZEROPAD) && (len < width) && (len < PRINTF_INTEGER_BUFFER_SIZE)) {
 8002b04:	d1f8      	bne.n	8002af8 <print_integer+0x17c>
 8002b06:	4653      	mov	r3, sl
 8002b08:	e764      	b.n	80029d4 <print_integer+0x58>
    if (!(flags & FLAGS_PRECISION) && len && ((len == precision) || (len == width))) {
 8002b0a:	b9c3      	cbnz	r3, 8002b3e <print_integer+0x1c2>
    if ((base == BASE_HEX) && !(flags & FLAGS_UPPERCASE) && (len < PRINTF_INTEGER_BUFFER_SIZE)) {
 8002b0c:	2f10      	cmp	r7, #16
 8002b0e:	d055      	beq.n	8002bbc <print_integer+0x240>
    else if ((base == BASE_BINARY) && (len < PRINTF_INTEGER_BUFFER_SIZE)) {
 8002b10:	2f02      	cmp	r7, #2
 8002b12:	d060      	beq.n	8002bd6 <print_integer+0x25a>
      buf[len++] = '0';
 8002b14:	2330      	movs	r3, #48	; 0x30
 8002b16:	f88d 3018 	strb.w	r3, [sp, #24]
 8002b1a:	2301      	movs	r3, #1
 8002b1c:	e789      	b.n	8002a32 <print_integer+0xb6>
    else if (base == BASE_HEX) {
 8002b1e:	2f10      	cmp	r7, #16
 8002b20:	d029      	beq.n	8002b76 <print_integer+0x1fa>
 8002b22:	ab06      	add	r3, sp, #24
  size_t len = 0U;
 8002b24:	2400      	movs	r4, #0
 8002b26:	9304      	str	r3, [sp, #16]
 8002b28:	e7cb      	b.n	8002ac2 <print_integer+0x146>
    else if (flags & FLAGS_PLUS) {
 8002b2a:	f01b 0f04 	tst.w	fp, #4
 8002b2e:	d104      	bne.n	8002b3a <print_integer+0x1be>
    else if (flags & FLAGS_SPACE) {
 8002b30:	f01b 0f08 	tst.w	fp, #8
 8002b34:	d087      	beq.n	8002a46 <print_integer+0xca>
      buf[len++] = ' ';
 8002b36:	2120      	movs	r1, #32
 8002b38:	e77f      	b.n	8002a3a <print_integer+0xbe>
      buf[len++] = '+';  // ignore the space if the '+' exists
 8002b3a:	212b      	movs	r1, #43	; 0x2b
 8002b3c:	e77d      	b.n	8002a3a <print_integer+0xbe>
    if (!(flags & FLAGS_PRECISION) && len && ((len == precision) || (len == width))) {
 8002b3e:	4599      	cmp	r9, r3
 8002b40:	d002      	beq.n	8002b48 <print_integer+0x1cc>
 8002b42:	459a      	cmp	sl, r3
 8002b44:	f47f af64 	bne.w	8002a10 <print_integer+0x94>
      if (unpadded_len < len) {
 8002b48:	429c      	cmp	r4, r3
 8002b4a:	f4bf af61 	bcs.w	8002a10 <print_integer+0x94>
      if (len && (base == BASE_HEX)) {
 8002b4e:	1e5a      	subs	r2, r3, #1
 8002b50:	d0dc      	beq.n	8002b0c <print_integer+0x190>
 8002b52:	2f10      	cmp	r7, #16
 8002b54:	d044      	beq.n	8002be0 <print_integer+0x264>
    else if ((base == BASE_BINARY) && (len < PRINTF_INTEGER_BUFFER_SIZE)) {
 8002b56:	2f02      	cmp	r7, #2
 8002b58:	d005      	beq.n	8002b66 <print_integer+0x1ea>
        len--;
 8002b5a:	4613      	mov	r3, r2
 8002b5c:	e760      	b.n	8002a20 <print_integer+0xa4>
    else if ((base == BASE_BINARY) && (len < PRINTF_INTEGER_BUFFER_SIZE)) {
 8002b5e:	2b20      	cmp	r3, #32
 8002b60:	f43f af71 	beq.w	8002a46 <print_integer+0xca>
 8002b64:	461a      	mov	r2, r3
      buf[len++] = 'b';
 8002b66:	2162      	movs	r1, #98	; 0x62
 8002b68:	f102 0338 	add.w	r3, r2, #56	; 0x38
 8002b6c:	446b      	add	r3, sp
 8002b6e:	f803 1c20 	strb.w	r1, [r3, #-32]
 8002b72:	1c53      	adds	r3, r2, #1
 8002b74:	e752      	b.n	8002a1c <print_integer+0xa0>
      flags &= ~FLAGS_HASH;
 8002b76:	ab06      	add	r3, sp, #24
  size_t len = 0U;
 8002b78:	2400      	movs	r4, #0
      flags &= ~FLAGS_HASH;
 8002b7a:	f02b 0b10 	bic.w	fp, fp, #16
 8002b7e:	9304      	str	r3, [sp, #16]
 8002b80:	e79f      	b.n	8002ac2 <print_integer+0x146>
        width--;
 8002b82:	f10a 3aff 	add.w	sl, sl, #4294967295	; 0xffffffff
 8002b86:	e7ac      	b.n	8002ae2 <print_integer+0x166>
      while ((flags & FLAGS_ZEROPAD) && (len < width) && (len < PRINTF_INTEGER_BUFFER_SIZE)) {
 8002b88:	2320      	movs	r3, #32
 8002b8a:	e733      	b.n	80029f4 <print_integer+0x78>
    if ((base == BASE_HEX) && !(flags & FLAGS_UPPERCASE) && (len < PRINTF_INTEGER_BUFFER_SIZE)) {
 8002b8c:	f01b 0f20 	tst.w	fp, #32
